 line   address	contents
    1                      ; Linked by DLX-LD.
    2                      ; MemSize 24576
    3                      ; Data size: 882
    4                      ; Text size: 5896
    5                      ; Stack size: 8192
    6  00000000          	.text 0x1000
    7  00001000          	.data 0x3000
    8                      ; Compiled by GCC
    9  00003000          	.text
   10  00001000          	.align 2
   11  00001000          	.proc _isspace
   12  00001000          	.global _isspace
   13  00001000          	_isspace:
   14                      ;  Function 'isspace'; 0 bytes of locals, 1 regs to save.
   15  00001000  afbefffc	sw	-4(r29),r30; push fp
   16  00001004  001df020	add	r30,r0,r29; fp = sp
   17  00001008  afbffff8	sw	-8(r29),r31; push ret addr
   18  0000100c  2fbd0010	subui	r29,r29,#16; alloc local storage
   19  00001010  afa20000	sw	0(r29),r2
   20  00001014  83c20003	lb	r2,3(r30)
   21  00001018  201f0000	addi	r31,r0,#0
   22  0000101c  304100ff	andi	r1,r2,#0x00ff
   23  00001020  60210020	seqi	r1,r1,#32
   24  00001024  14200018	bnez	r1,L6_LF0
   25  00001028  54000000	nop; not filled.
   26  0000102c  2041fff7	addi	r1,r2,#-9
   27  00001030  302100ff	andi	r1,r1,#0x00ff
   28  00001034  70210001	sleui	r1,r1,#1
   29  00001038  10200008	beqz	r1,L5_LF0
   30  0000103c  54000000	nop; not filled.
   31  00001040          	L6_LF0:
   32  00001040  201f0001	addi	r31,r0,#1
   33  00001044          	L5_LF0:
   34  00001044  001f0820	add	r1,r0,r31
   35  00001048  8fa20000	lw	r2,0(r29)
   36  0000104c  8fdffff8	lw	r31,-8(r30)
   37  00001050  001ee820	add	r29,r0,r30
   38  00001054  8fdefffc	lw	r30,-4(r30)
   39  00001058  4be00000	jr	r31
   40  0000105c  54000000	nop
   41  00001060          	.endproc _isspace
   42  00001060          	.align 2
   43  00001060          	.proc _isxdigit
   44  00001060          	.global _isxdigit
   45  00001060          	_isxdigit:
   46                      ;  Function 'isxdigit'; 0 bytes of locals, 1 regs to save.
   47  00001060  afbefffc	sw	-4(r29),r30; push fp
   48  00001064  001df020	add	r30,r0,r29; fp = sp
   49  00001068  afbffff8	sw	-8(r29),r31; push ret addr
   50  0000106c  2fbd0010	subui	r29,r29,#16; alloc local storage
   51  00001070  afa20000	sw	0(r29),r2
   52  00001074  83df0003	lb	r31,3(r30)
   53  00001078  20020000	addi	r2,r0,#0
   54  0000107c  23e1ffd0	addi	r1,r31,#-48
   55  00001080  302100ff	andi	r1,r1,#0x00ff
   56  00001084  70210009	sleui	r1,r1,#9
   57  00001088  14200028	bnez	r1,L12_LF0
   58  0000108c  54000000	nop; not filled.
   59  00001090  23e1ff9f	addi	r1,r31,#-97
   60  00001094  302100ff	andi	r1,r1,#0x00ff
   61  00001098  70210005	sleui	r1,r1,#5
   62  0000109c  14200014	bnez	r1,L12_LF0
   63  000010a0  54000000	nop; not filled.
   64  000010a4  33e100ff	andi	r1,r31,#0x00ff
   65  000010a8  64210041	snei	r1,r1,#65
   66  000010ac  14200008	bnez	r1,L11_LF0
   67  000010b0  54000000	nop; not filled.
   68  000010b4          	L12_LF0:
   69  000010b4  20020001	addi	r2,r0,#1
   70  000010b8          	L11_LF0:
   71  000010b8  00020820	add	r1,r0,r2
   72  000010bc  8fa20000	lw	r2,0(r29)
   73  000010c0  8fdffff8	lw	r31,-8(r30)
   74  000010c4  001ee820	add	r29,r0,r30
   75  000010c8  8fdefffc	lw	r30,-4(r30)
   76  000010cc  4be00000	jr	r31
   77  000010d0  54000000	nop
   78  000010d4          	.endproc _isxdigit
   79  000010d4          	.data
   80  00003000          	.align 2
   81  00003000          	LC0_LF0:
   82  00003000  55736167	.ascii "Usage: %s <number of hello world processes to create>\n\000"
   82  00003004  653a2025	
   82  00003008  73203c6e	
   82  0000300c  756d6265	
   82  00003010  72206f66	
   82  00003014  2068656c	
   82  00003018  6c6f2077	
   82  0000301c  6f726c64	
   82  00003020  2070726f	
   82  00003024  63657373	
   82  00003028  65732074	
   82  0000302c  6f206372	
   82  00003030  65617465	
   82  00003034  3e0a00  	
   83  00003037          	.align 2
   84  00003038          	LC1_LF0:
   85  00003038  6d616b65	.ascii "makeprocs (%d): Bad sem_create\n\000"
   85  0000303c  70726f63	
   85  00003040  73202825	
   85  00003044  64293a20	
   85  00003048  42616420	
   85  0000304c  73656d5f	
   85  00003050  63726561	
   85  00003054  74650a00	
   86  00003058          	.align 2
   87  00003058          	LC2_LF0:
   88  00003058  2d2d2d2d	.ascii "----------------------------------------------------------------------"
   88  0000305c  2d2d2d2d	
   88  00003060  2d2d2d2d	
   88  00003064  2d2d2d2d	
   88  00003068  2d2d2d2d	
   88  0000306c  2d2d2d2d	
   88  00003070  2d2d2d2d	
   88  00003074  2d2d2d2d	
   88  00003078  2d2d2d2d	
   88  0000307c  2d2d2d2d	
   88  00003080  2d2d2d2d	
   88  00003084  2d2d2d2d	
   88  00003088  2d2d2d2d	
   88  0000308c  2d2d2d2d	
   88  00003090  2d2d2d2d	
   88  00003094  2d2d2d2d	
   88  00003098  2d2d2d2d	
   88  0000309c  2d2d    	
   89  0000309e  2d2d2d2d	.ascii "---------------\n\000"
   89  000030a2  2d2d2d2d	
   89  000030a6  2d2d2d2d	
   89  000030aa  2d2d2d0a	
   89  000030ae  00      	
   90  000030af          	.align 2
   91  000030b0          	LC3_LF0:
   92  000030b0  6d616b65	.ascii "makeprocs (%d): Creating 1 hello world\n\000"
   92  000030b4  70726f63	
   92  000030b8  73202825	
   92  000030bc  64293a20	
   92  000030c0  43726561	
   92  000030c4  74696e67	
   92  000030c8  20312068	
   92  000030cc  656c6c6f	
   92  000030d0  20776f72	
   92  000030d4  6c640a00	
   93  000030d8          	.align 2
   94  000030d8          	LC4_LF0:
   95  000030d8  71325f31	.ascii "q2_1.dlx.obj\000"
   95  000030dc  2e646c78	
   95  000030e0  2e6f626a	
   95  000030e4  00      	
   96  000030e5          	.align 2
   97  000030e8          	LC5_LF0:
   98  000030e8  42616420	.ascii "Bad semaphore s_procs_completed (%d) in %s\n\000"
   98  000030ec  73656d61	
   98  000030f0  70686f72	
   98  000030f4  6520735f	
   98  000030f8  70726f63	
   98  000030fc  735f636f	
   98  00003100  6d706c65	
   98  00003104  74656420	
   98  00003108  28256429	
   98  0000310c  20696e20	
   98  00003110  25730a00	
   99  00003114          	.align 2
  100  00003114          	LC6_LF0:
  101  00003114  6d616b65	.ascii "makeprocs (%d): Access memory outside of currently allocated pages #%d"
  101  00003118  70726f63	
  101  0000311c  73202825	
  101  00003120  64293a20	
  101  00003124  41636365	
  101  00003128  7373206d	
  101  0000312c  656d6f72	
  101  00003130  79206f75	
  101  00003134  74736964	
  101  00003138  65206f66	
  101  0000313c  20637572	
  101  00003140  72656e74	
  101  00003144  6c792061	
  101  00003148  6c6c6f63	
  101  0000314c  61746564	
  101  00003150  20706167	
  101  00003154  65732023	
  101  00003158  2564    	
  102  0000315a  0a00    	.ascii "\n\000"
  103  0000315c          	.align 2
  104  0000315c          	LC7_LF0:
  105  0000315c  71325f33	.ascii "q2_3.dlx.obj\000"
  105  00003160  2e646c78	
  105  00003164  2e6f626a	
  105  00003168  00      	
  106  00003169          	.align 2
  107  0000316c          	LC8_LF0:
  108  0000316c  6d616b65	.ascii "makeprocs (%d): Call stack grows larger than 1 page #%d\n\000"
  108  00003170  70726f63	
  108  00003174  73202825	
  108  00003178  64293a20	
  108  0000317c  43616c6c	
  108  00003180  20737461	
  108  00003184  636b2067	
  108  00003188  726f7773	
  108  0000318c  206c6172	
  108  00003190  67657220	
  108  00003194  7468616e	
  108  00003198  20312070	
  108  0000319c  61676520	
  108  000031a0  2325640a	
  108  000031a4  00      	
  109  000031a5          	.align 2
  110  000031a8          	LC9_LF0:
  111  000031a8  71325f34	.ascii "q2_4.dlx.obj\000"
  111  000031ac  2e646c78	
  111  000031b0  2e6f626a	
  111  000031b4  00      	
  112  000031b5          	.align 2
  113  000031b8          	LC10_LF0:
  114  000031b8  6d616b65	.ascii "makeprocs (%d): Creating %d hello world\'s in a row, but only one runs"
  114  000031bc  70726f63	
  114  000031c0  73202825	
  114  000031c4  64293a20	
  114  000031c8  43726561	
  114  000031cc  74696e67	
  114  000031d0  20256420	
  114  000031d4  68656c6c	
  114  000031d8  6f20776f	
  114  000031dc  726c6427	
  114  000031e0  7320696e	
  114  000031e4  20612072	
  114  000031e8  6f772c20	
  114  000031ec  62757420	
  114  000031f0  6f6e6c79	
  114  000031f4  206f6e65	
  114  000031f8  2072756e	
  114  000031fc  73      	
  115  000031fd  20617420	.ascii " at a time\n\000"
  115  00003201  61207469	
  115  00003205  6d650a00	
  116  00003209          	.align 2
  117  0000320c          	LC11_LF0:
  118  0000320c  6d616b65	.ascii "makeprocs (%d): Creating hello world #%d\n\000"
  118  00003210  70726f63	
  118  00003214  73202825	
  118  00003218  64293a20	
  118  0000321c  43726561	
  118  00003220  74696e67	
  118  00003224  2068656c	
  118  00003228  6c6f2077	
  118  0000322c  6f726c64	
  118  00003230  20232564	
  118  00003234  0a00    	
  119  00003236          	.align 2
  120  00003238          	LC12_LF0:
  121  00003238  71325f35	.ascii "q2_5.dlx.obj\000"
  121  0000323c  2e646c78	
  121  00003240  2e6f626a	
  121  00003244  00      	
  122  00003245          	.align 2
  123  00003248          	LC13_LF0:
  124  00003248  6d616b65	.ascii "makeprocs (%d): Count to a large number in a for loop for %d times\n\000"
  124  0000324c  70726f63	
  124  00003250  73202825	
  124  00003254  64293a20	
  124  00003258  436f756e	
  124  0000325c  7420746f	
  124  00003260  2061206c	
  124  00003264  61726765	
  124  00003268  206e756d	
  124  0000326c  62657220	
  124  00003270  696e2061	
  124  00003274  20666f72	
  124  00003278  206c6f6f	
  124  0000327c  7020666f	
  124  00003280  72202564	
  124  00003284  2074696d	
  124  00003288  65730a00	
  125  0000328c          	.align 2
  126  0000328c          	LC14_LF0:
  127  0000328c  6d616b65	.ascii "makeprocs (%d): Count to a large number in a for loop #%d\n\000"
  127  00003290  70726f63	
  127  00003294  73202825	
  127  00003298  64293a20	
  127  0000329c  436f756e	
  127  000032a0  7420746f	
  127  000032a4  2061206c	
  127  000032a8  61726765	
  127  000032ac  206e756d	
  127  000032b0  62657220	
  127  000032b4  696e2061	
  127  000032b8  20666f72	
  127  000032bc  206c6f6f	
  127  000032c0  70202325	
  127  000032c4  640a00  	
  128  000032c7          	.align 2
  129  000032c8          	LC15_LF0:
  130  000032c8  71325f36	.ascii "q2_6.dlx.obj\000"
  130  000032cc  2e646c78	
  130  000032d0  2e6f626a	
  130  000032d4  00      	
  131  000032d5          	.align 2
  132  000032d8          	LC16_LF0:
  133  000032d8  6d616b65	.ascii "makeprocs (%d): Access memory beyond the max virtual address #%d\n\000"
  133  000032dc  70726f63	
  133  000032e0  73202825	
  133  000032e4  64293a20	
  133  000032e8  41636365	
  133  000032ec  7373206d	
  133  000032f0  656d6f72	
  133  000032f4  79206265	
  133  000032f8  796f6e64	
  133  000032fc  20746865	
  133  00003300  206d6178	
  133  00003304  20766972	
  133  00003308  7475616c	
  133  0000330c  20616464	
  133  00003310  72657373	
  133  00003314  20232564	
  133  00003318  0a00    	
  134  0000331a          	.align 2
  135  0000331c          	LC17_LF0:
  136  0000331c  71325f32	.ascii "q2_2.dlx.obj\000"
  136  00003320  2e646c78	
  136  00003324  2e6f626a	
  136  00003328  00      	
  137  00003329          	.align 2
  138  0000332c          	LC18_LF0:
  139  0000332c  6d616b65	.ascii "makeprocs (%d): All other processes completed, exiting main process.\n"
  139  00003330  70726f63	
  139  00003334  73202825	
  139  00003338  64293a20	
  139  0000333c  416c6c20	
  139  00003340  6f746865	
  139  00003344  72207072	
  139  00003348  6f636573	
  139  0000334c  73657320	
  139  00003350  636f6d70	
  139  00003354  6c657465	
  139  00003358  642c2065	
  139  0000335c  78697469	
  139  00003360  6e67206d	
  139  00003364  61696e20	
  139  00003368  70726f63	
  139  0000336c  6573732e	
  139  00003370  0a      	
  140  00003371  00      	.ascii "\000"
  141  00003372          	.text
  142  000010d4          	.align 2
  143  000010d4          	.proc _main
  144  000010d4          	.global _main
  145  000010d4          	_main:
  146                      ;  Function 'main'; 16 bytes of locals, 0 regs to save.
  147  000010d4  afbefffc	sw	-4(r29),r30; push fp
  148  000010d8  001df020	add	r30,r0,r29; fp = sp
  149  000010dc  afbffff8	sw	-8(r29),r31; push ret addr
  150  000010e0  2fbd0018	subui	r29,r29,#24; alloc local storage
  151  000010e4  8fc20000	lw	r2,(r30)
  152  000010e8  8fc50004	lw	r5,4(r30)
  153  000010ec  0c001610	jal	___main
  154  000010f0  54000000	nop; not filled.
  155  000010f4  20030000	addi	r3,r0,#0
  156  000010f8  64410001	snei	r1,r2,#1
  157  000010fc  10200030	beqz	r1,L14_LF0
  158  00001100  54000000	nop; not filled.
  159  00001104  23bdfff8	addi	r29,r29,#-8
  160  00001108  3c070000	lhi	r7,((LC0_LF0)>>16)&0xffff
  161  0000110c  24e73000	addui	r7,r7,(LC0_LF0)&0xffff
  162  00001110  afa70000	sw	(r29),r7
  163  00001114  8ca10000	lw	r1,(r5)
  164  00001118  afa10004	sw	4(r29),r1
  165  0000111c  0c000720	jal	_Printf
  166  00001120  54000000	nop; not filled.
  167  00001124  0c000820	jal	_Exit
  168  00001128  54000000	nop; not filled.
  169  0000112c  23bd0008	addi	r29,r29,#8
  170  00001130          	L14_LF0:
  171  00001130  23bdfff8	addi	r29,r29,#-8
  172  00001134  20070000	addi	r7,r0,#0
  173  00001138  afa70000	sw	(r29),r7
  174  0000113c  0c00073c	jal	_sem_create
  175  00001140  54000000	nop; not filled.
  176  00001144  00011020	add	r2,r0,r1
  177  00001148  23bd0008	addi	r29,r29,#8
  178  0000114c  6041ffff	seqi	r1,r2,#-1
  179  00001150  10200034	beqz	r1,L15_LF0
  180  00001154  54000000	nop; not filled.
  181  00001158  0c0006f0	jal	_getpid
  182  0000115c  54000000	nop; not filled.
  183  00001160  23bdfff8	addi	r29,r29,#-8
  184  00001164  3c070000	lhi	r7,((LC1_LF0)>>16)&0xffff
  185  00001168  24e73038	addui	r7,r7,(LC1_LF0)&0xffff
  186  0000116c  afa70000	sw	(r29),r7
  187  00001170  afa10004	sw	4(r29),r1
  188  00001174  0c0006c8	jal	_Printf
  189  00001178  54000000	nop; not filled.
  190  0000117c  0c0007c8	jal	_Exit
  191  00001180  54000000	nop; not filled.
  192  00001184  23bd0008	addi	r29,r29,#8
  193  00001188          	L15_LF0:
  194  00001188  23bdfff8	addi	r29,r29,#-8
  195  0000118c  afa20000	sw	(r29),r2
  196  00001190  23c4ffe8	addi	r4,r30,#-24
  197  00001194  afa40004	sw	4(r29),r4
  198  00001198  0c000edc	jal	_ditoa
  199  0000119c  54000000	nop; not filled.
  200  000011a0  3c060000	lhi	r6,((LC2_LF0)>>16)&0xffff
  201  000011a4  24c63058	addui	r6,r6,(LC2_LF0)&0xffff
  202  000011a8  afa60000	sw	(r29),r6
  203  000011ac  0c000690	jal	_Printf
  204  000011b0  54000000	nop; not filled.
  205  000011b4  0c000694	jal	_getpid
  206  000011b8  54000000	nop; not filled.
  207  000011bc  3c070000	lhi	r7,((LC3_LF0)>>16)&0xffff
  208  000011c0  24e730b0	addui	r7,r7,(LC3_LF0)&0xffff
  209  000011c4  afa70000	sw	(r29),r7
  210  000011c8  afa10004	sw	4(r29),r1
  211  000011cc  0c000670	jal	_Printf
  212  000011d0  54000000	nop; not filled.
  213  000011d4  23bdfff8	addi	r29,r29,#-8
  214  000011d8  3c070000	lhi	r7,((LC4_LF0)>>16)&0xffff
  215  000011dc  24e730d8	addui	r7,r7,(LC4_LF0)&0xffff
  216  000011e0  afa70000	sw	(r29),r7
  217  000011e4  afa40004	sw	4(r29),r4
  218  000011e8  20070000	addi	r7,r0,#0
  219  000011ec  afa70008	sw	8(r29),r7
  220  000011f0  0c000664	jal	_process_create
  221  000011f4  54000000	nop; not filled.
  222  000011f8  afa20000	sw	(r29),r2
  223  000011fc  0c000688	jal	_sem_wait
  224  00001200  54000000	nop; not filled.
  225  00001204  23bd0010	addi	r29,r29,#16
  226  00001208  64210001	snei	r1,r1,#1
  227  0000120c  10200034	beqz	r1,L16_LF0
  228  00001210  54000000	nop; not filled.
  229  00001214  23bdfff0	addi	r29,r29,#-16
  230  00001218  3c070000	lhi	r7,((LC5_LF0)>>16)&0xffff
  231  0000121c  24e730e8	addui	r7,r7,(LC5_LF0)&0xffff
  232  00001220  afa70000	sw	(r29),r7
  233  00001224  afa20004	sw	4(r29),r2
  234  00001228  8ca70000	lw	r7,(r5)
  235  0000122c  afa70008	sw	8(r29),r7
  236  00001230  0c00060c	jal	_Printf
  237  00001234  54000000	nop; not filled.
  238  00001238  0c00070c	jal	_Exit
  239  0000123c  54000000	nop; not filled.
  240  00001240  23bd0010	addi	r29,r29,#16
  241  00001244          	L16_LF0:
  242  00001244  23bdfff8	addi	r29,r29,#-8
  243  00001248  afa60000	sw	(r29),r6
  244  0000124c  0c0005f0	jal	_Printf
  245  00001250  54000000	nop; not filled.
  246  00001254  0c0005f4	jal	_getpid
  247  00001258  54000000	nop; not filled.
  248  0000125c  23bdfff8	addi	r29,r29,#-8
  249  00001260  3c070000	lhi	r7,((LC6_LF0)>>16)&0xffff
  250  00001264  24e73114	addui	r7,r7,(LC6_LF0)&0xffff
  251  00001268  afa70000	sw	(r29),r7
  252  0000126c  afa10004	sw	4(r29),r1
  253  00001270  20070000	addi	r7,r0,#0
  254  00001274  afa70008	sw	8(r29),r7
  255  00001278  0c0005c4	jal	_Printf
  256  0000127c  54000000	nop; not filled.
  257  00001280  afa70000	sw	(r29),r7
  258  00001284  0c0005f4	jal	_sem_create
  259  00001288  54000000	nop; not filled.
  260  0000128c  00011020	add	r2,r0,r1
  261  00001290  23bd0010	addi	r29,r29,#16
  262  00001294  6041ffff	seqi	r1,r2,#-1
  263  00001298  10200034	beqz	r1,L17_LF0
  264  0000129c  54000000	nop; not filled.
  265  000012a0  0c0005a8	jal	_getpid
  266  000012a4  54000000	nop; not filled.
  267  000012a8  23bdfff8	addi	r29,r29,#-8
  268  000012ac  3c070000	lhi	r7,((LC1_LF0)>>16)&0xffff
  269  000012b0  24e73038	addui	r7,r7,(LC1_LF0)&0xffff
  270  000012b4  afa70000	sw	(r29),r7
  271  000012b8  afa10004	sw	4(r29),r1
  272  000012bc  0c000580	jal	_Printf
  273  000012c0  54000000	nop; not filled.
  274  000012c4  0c000680	jal	_Exit
  275  000012c8  54000000	nop; not filled.
  276  000012cc  23bd0008	addi	r29,r29,#8
  277  000012d0          	L17_LF0:
  278  000012d0  23bdfff0	addi	r29,r29,#-16
  279  000012d4  3c070000	lhi	r7,((LC7_LF0)>>16)&0xffff
  280  000012d8  24e7315c	addui	r7,r7,(LC7_LF0)&0xffff
  281  000012dc  afa70000	sw	(r29),r7
  282  000012e0  afa40004	sw	4(r29),r4
  283  000012e4  20070000	addi	r7,r0,#0
  284  000012e8  afa70008	sw	8(r29),r7
  285  000012ec  0c000568	jal	_process_create
  286  000012f0  54000000	nop; not filled.
  287  000012f4  afa20000	sw	(r29),r2
  288  000012f8  0c00058c	jal	_sem_wait
  289  000012fc  54000000	nop; not filled.
  290  00001300  23bd0010	addi	r29,r29,#16
  291  00001304  64210001	snei	r1,r1,#1
  292  00001308  10200034	beqz	r1,L18_LF0
  293  0000130c  54000000	nop; not filled.
  294  00001310  23bdfff0	addi	r29,r29,#-16
  295  00001314  3c070000	lhi	r7,((LC5_LF0)>>16)&0xffff
  296  00001318  24e730e8	addui	r7,r7,(LC5_LF0)&0xffff
  297  0000131c  afa70000	sw	(r29),r7
  298  00001320  afa20004	sw	4(r29),r2
  299  00001324  8ca70000	lw	r7,(r5)
  300  00001328  afa70008	sw	8(r29),r7
  301  0000132c  0c000510	jal	_Printf
  302  00001330  54000000	nop; not filled.
  303  00001334  0c000610	jal	_Exit
  304  00001338  54000000	nop; not filled.
  305  0000133c  23bd0010	addi	r29,r29,#16
  306  00001340          	L18_LF0:
  307  00001340  23bdfff8	addi	r29,r29,#-8
  308  00001344  afa60000	sw	(r29),r6
  309  00001348  0c0004f4	jal	_Printf
  310  0000134c  54000000	nop; not filled.
  311  00001350  0c0004f8	jal	_getpid
  312  00001354  54000000	nop; not filled.
  313  00001358  23bdfff8	addi	r29,r29,#-8
  314  0000135c  3c070000	lhi	r7,((LC8_LF0)>>16)&0xffff
  315  00001360  24e7316c	addui	r7,r7,(LC8_LF0)&0xffff
  316  00001364  afa70000	sw	(r29),r7
  317  00001368  afa10004	sw	4(r29),r1
  318  0000136c  20070000	addi	r7,r0,#0
  319  00001370  afa70008	sw	8(r29),r7
  320  00001374  0c0004c8	jal	_Printf
  321  00001378  54000000	nop; not filled.
  322  0000137c  afa70000	sw	(r29),r7
  323  00001380  0c0004f8	jal	_sem_create
  324  00001384  54000000	nop; not filled.
  325  00001388  00011020	add	r2,r0,r1
  326  0000138c  23bd0010	addi	r29,r29,#16
  327  00001390  6041ffff	seqi	r1,r2,#-1
  328  00001394  10200034	beqz	r1,L19_LF0
  329  00001398  54000000	nop; not filled.
  330  0000139c  0c0004ac	jal	_getpid
  331  000013a0  54000000	nop; not filled.
  332  000013a4  23bdfff8	addi	r29,r29,#-8
  333  000013a8  3c070000	lhi	r7,((LC1_LF0)>>16)&0xffff
  334  000013ac  24e73038	addui	r7,r7,(LC1_LF0)&0xffff
  335  000013b0  afa70000	sw	(r29),r7
  336  000013b4  afa10004	sw	4(r29),r1
  337  000013b8  0c000484	jal	_Printf
  338  000013bc  54000000	nop; not filled.
  339  000013c0  0c000584	jal	_Exit
  340  000013c4  54000000	nop; not filled.
  341  000013c8  23bd0008	addi	r29,r29,#8
  342  000013cc          	L19_LF0:
  343  000013cc  23bdfff0	addi	r29,r29,#-16
  344  000013d0  3c070000	lhi	r7,((LC9_LF0)>>16)&0xffff
  345  000013d4  24e731a8	addui	r7,r7,(LC9_LF0)&0xffff
  346  000013d8  afa70000	sw	(r29),r7
  347  000013dc  afa40004	sw	4(r29),r4
  348  000013e0  20070000	addi	r7,r0,#0
  349  000013e4  afa70008	sw	8(r29),r7
  350  000013e8  0c00046c	jal	_process_create
  351  000013ec  54000000	nop; not filled.
  352  000013f0  afa20000	sw	(r29),r2
  353  000013f4  0c000490	jal	_sem_wait
  354  000013f8  54000000	nop; not filled.
  355  000013fc  23bd0010	addi	r29,r29,#16
  356  00001400  64210001	snei	r1,r1,#1
  357  00001404  10200034	beqz	r1,L20_LF0
  358  00001408  54000000	nop; not filled.
  359  0000140c  23bdfff0	addi	r29,r29,#-16
  360  00001410  3c070000	lhi	r7,((LC5_LF0)>>16)&0xffff
  361  00001414  24e730e8	addui	r7,r7,(LC5_LF0)&0xffff
  362  00001418  afa70000	sw	(r29),r7
  363  0000141c  afa20004	sw	4(r29),r2
  364  00001420  8ca70000	lw	r7,(r5)
  365  00001424  afa70008	sw	8(r29),r7
  366  00001428  0c000414	jal	_Printf
  367  0000142c  54000000	nop; not filled.
  368  00001430  0c000514	jal	_Exit
  369  00001434  54000000	nop; not filled.
  370  00001438  23bd0010	addi	r29,r29,#16
  371  0000143c          	L20_LF0:
  372  0000143c  23bdfff8	addi	r29,r29,#-8
  373  00001440  afa60000	sw	(r29),r6
  374  00001444  0c0003f8	jal	_Printf
  375  00001448  54000000	nop; not filled.
  376  0000144c  0c0003fc	jal	_getpid
  377  00001450  54000000	nop; not filled.
  378  00001454  23bdfff8	addi	r29,r29,#-8
  379  00001458  3c070000	lhi	r7,((LC10_LF0)>>16)&0xffff
  380  0000145c  24e731b8	addui	r7,r7,(LC10_LF0)&0xffff
  381  00001460  afa70000	sw	(r29),r7
  382  00001464  afa10004	sw	4(r29),r1
  383  00001468  20070064	addi	r7,r0,#100
  384  0000146c  afa70008	sw	8(r29),r7
  385  00001470  0c0003cc	jal	_Printf
  386  00001474  54000000	nop; not filled.
  387  00001478  20070000	addi	r7,r0,#0
  388  0000147c  afa70000	sw	(r29),r7
  389  00001480  0c0003f8	jal	_sem_create
  390  00001484  54000000	nop; not filled.
  391  00001488  00011020	add	r2,r0,r1
  392  0000148c  23bd0010	addi	r29,r29,#16
  393  00001490  6041ffff	seqi	r1,r2,#-1
  394  00001494  10200034	beqz	r1,L25_LF0
  395  00001498  54000000	nop; not filled.
  396  0000149c  0c0003ac	jal	_getpid
  397  000014a0  54000000	nop; not filled.
  398  000014a4  23bdfff8	addi	r29,r29,#-8
  399  000014a8  3c070000	lhi	r7,((LC1_LF0)>>16)&0xffff
  400  000014ac  24e73038	addui	r7,r7,(LC1_LF0)&0xffff
  401  000014b0  afa70000	sw	(r29),r7
  402  000014b4  afa10004	sw	4(r29),r1
  403  000014b8  0c000384	jal	_Printf
  404  000014bc  54000000	nop; not filled.
  405  000014c0  0c000484	jal	_Exit
  406  000014c4  54000000	nop; not filled.
  407  000014c8  23bd0008	addi	r29,r29,#8
  408  000014cc          	L25_LF0:
  409  000014cc  0c00037c	jal	_getpid
  410  000014d0  54000000	nop; not filled.
  411  000014d4  23bdfff0	addi	r29,r29,#-16
  412  000014d8  3c070000	lhi	r7,((LC11_LF0)>>16)&0xffff
  413  000014dc  24e7320c	addui	r7,r7,(LC11_LF0)&0xffff
  414  000014e0  afa70000	sw	(r29),r7
  415  000014e4  afa10004	sw	4(r29),r1
  416  000014e8  afa30008	sw	8(r29),r3
  417  000014ec  0c000350	jal	_Printf
  418  000014f0  54000000	nop; not filled.
  419  000014f4  3c070000	lhi	r7,((LC12_LF0)>>16)&0xffff
  420  000014f8  24e73238	addui	r7,r7,(LC12_LF0)&0xffff
  421  000014fc  afa70000	sw	(r29),r7
  422  00001500  afa40004	sw	4(r29),r4
  423  00001504  20070000	addi	r7,r0,#0
  424  00001508  afa70008	sw	8(r29),r7
  425  0000150c  0c000348	jal	_process_create
  426  00001510  54000000	nop; not filled.
  427  00001514  afa20000	sw	(r29),r2
  428  00001518  0c00036c	jal	_sem_wait
  429  0000151c  54000000	nop; not filled.
  430  00001520  23bd0010	addi	r29,r29,#16
  431  00001524  64210001	snei	r1,r1,#1
  432  00001528  10200034	beqz	r1,L24_LF0
  433  0000152c  54000000	nop; not filled.
  434  00001530  23bdfff0	addi	r29,r29,#-16
  435  00001534  3c070000	lhi	r7,((LC5_LF0)>>16)&0xffff
  436  00001538  24e730e8	addui	r7,r7,(LC5_LF0)&0xffff
  437  0000153c  afa70000	sw	(r29),r7
  438  00001540  afa20004	sw	4(r29),r2
  439  00001544  8ca70000	lw	r7,(r5)
  440  00001548  afa70008	sw	8(r29),r7
  441  0000154c  0c0002f0	jal	_Printf
  442  00001550  54000000	nop; not filled.
  443  00001554  0c0003f0	jal	_Exit
  444  00001558  54000000	nop; not filled.
  445  0000155c  23bd0010	addi	r29,r29,#16
  446  00001560          	L24_LF0:
  447  00001560  20630001	addi	r3,r3,#1
  448  00001564  70610063	slei	r1,r3,#99
  449  00001568  1420ff60	bnez	r1,L25_LF0
  450  0000156c  54000000	nop; not filled.
  451  00001570  23bdfff8	addi	r29,r29,#-8
  452  00001574  3c070000	lhi	r7,((LC2_LF0)>>16)&0xffff
  453  00001578  24e73058	addui	r7,r7,(LC2_LF0)&0xffff
  454  0000157c  afa70000	sw	(r29),r7
  455  00001580  0c0002bc	jal	_Printf
  456  00001584  54000000	nop; not filled.
  457  00001588  0c0002c0	jal	_getpid
  458  0000158c  54000000	nop; not filled.
  459  00001590  23bdfff8	addi	r29,r29,#-8
  460  00001594  3c070000	lhi	r7,((LC13_LF0)>>16)&0xffff
  461  00001598  24e73248	addui	r7,r7,(LC13_LF0)&0xffff
  462  0000159c  afa70000	sw	(r29),r7
  463  000015a0  afa10004	sw	4(r29),r1
  464  000015a4  2007001e	addi	r7,r0,#30
  465  000015a8  afa70008	sw	8(r29),r7
  466  000015ac  0c000290	jal	_Printf
  467  000015b0  54000000	nop; not filled.
  468  000015b4  20070000	addi	r7,r0,#0
  469  000015b8  afa70000	sw	(r29),r7
  470  000015bc  0c0002bc	jal	_sem_create
  471  000015c0  54000000	nop; not filled.
  472  000015c4  00011020	add	r2,r0,r1
  473  000015c8  23bd0010	addi	r29,r29,#16
  474  000015cc  6041ffff	seqi	r1,r2,#-1
  475  000015d0  10200034	beqz	r1,L28_LF0
  476  000015d4  54000000	nop; not filled.
  477  000015d8  0c000270	jal	_getpid
  478  000015dc  54000000	nop; not filled.
  479  000015e0  23bdfff8	addi	r29,r29,#-8
  480  000015e4  3c070000	lhi	r7,((LC1_LF0)>>16)&0xffff
  481  000015e8  24e73038	addui	r7,r7,(LC1_LF0)&0xffff
  482  000015ec  afa70000	sw	(r29),r7
  483  000015f0  afa10004	sw	4(r29),r1
  484  000015f4  0c000248	jal	_Printf
  485  000015f8  54000000	nop; not filled.
  486  000015fc  0c000348	jal	_Exit
  487  00001600  54000000	nop; not filled.
  488  00001604  23bd0008	addi	r29,r29,#8
  489  00001608          	L28_LF0:
  490  00001608  20030000	addi	r3,r0,#0
  491  0000160c  23c4ffe8	addi	r4,r30,#-24
  492  00001610          	L32_LF0:
  493  00001610  0c000238	jal	_getpid
  494  00001614  54000000	nop; not filled.
  495  00001618  23bdfff0	addi	r29,r29,#-16
  496  0000161c  3c070000	lhi	r7,((LC14_LF0)>>16)&0xffff
  497  00001620  24e7328c	addui	r7,r7,(LC14_LF0)&0xffff
  498  00001624  afa70000	sw	(r29),r7
  499  00001628  afa10004	sw	4(r29),r1
  500  0000162c  afa30008	sw	8(r29),r3
  501  00001630  0c00020c	jal	_Printf
  502  00001634  54000000	nop; not filled.
  503  00001638  3c070000	lhi	r7,((LC15_LF0)>>16)&0xffff
  504  0000163c  24e732c8	addui	r7,r7,(LC15_LF0)&0xffff
  505  00001640  afa70000	sw	(r29),r7
  506  00001644  afa40004	sw	4(r29),r4
  507  00001648  20070000	addi	r7,r0,#0
  508  0000164c  afa70008	sw	8(r29),r7
  509  00001650  0c000204	jal	_process_create
  510  00001654  54000000	nop; not filled.
  511  00001658  afa20000	sw	(r29),r2
  512  0000165c  0c000228	jal	_sem_wait
  513  00001660  54000000	nop; not filled.
  514  00001664  23bd0010	addi	r29,r29,#16
  515  00001668  64210001	snei	r1,r1,#1
  516  0000166c  10200034	beqz	r1,L31_LF0
  517  00001670  54000000	nop; not filled.
  518  00001674  23bdfff0	addi	r29,r29,#-16
  519  00001678  3c070000	lhi	r7,((LC5_LF0)>>16)&0xffff
  520  0000167c  24e730e8	addui	r7,r7,(LC5_LF0)&0xffff
  521  00001680  afa70000	sw	(r29),r7
  522  00001684  afa20004	sw	4(r29),r2
  523  00001688  8ca70000	lw	r7,(r5)
  524  0000168c  afa70008	sw	8(r29),r7
  525  00001690  0c0001ac	jal	_Printf
  526  00001694  54000000	nop; not filled.
  527  00001698  0c0002ac	jal	_Exit
  528  0000169c  54000000	nop; not filled.
  529  000016a0  23bd0010	addi	r29,r29,#16
  530  000016a4          	L31_LF0:
  531  000016a4  20630001	addi	r3,r3,#1
  532  000016a8  7061001d	slei	r1,r3,#29
  533  000016ac  1420ff60	bnez	r1,L32_LF0
  534  000016b0  54000000	nop; not filled.
  535  000016b4  23bdfff8	addi	r29,r29,#-8
  536  000016b8  3c040000	lhi	r4,((LC2_LF0)>>16)&0xffff
  537  000016bc  24843058	addui	r4,r4,(LC2_LF0)&0xffff
  538  000016c0  afa40000	sw	(r29),r4
  539  000016c4  0c000178	jal	_Printf
  540  000016c8  54000000	nop; not filled.
  541  000016cc  0c00017c	jal	_getpid
  542  000016d0  54000000	nop; not filled.
  543  000016d4  23bdfff8	addi	r29,r29,#-8
  544  000016d8  3c070000	lhi	r7,((LC16_LF0)>>16)&0xffff
  545  000016dc  24e732d8	addui	r7,r7,(LC16_LF0)&0xffff
  546  000016e0  afa70000	sw	(r29),r7
  547  000016e4  afa10004	sw	4(r29),r1
  548  000016e8  afa30008	sw	8(r29),r3
  549  000016ec  0c000150	jal	_Printf
  550  000016f0  54000000	nop; not filled.
  551  000016f4  20070000	addi	r7,r0,#0
  552  000016f8  afa70000	sw	(r29),r7
  553  000016fc  0c00017c	jal	_sem_create
  554  00001700  54000000	nop; not filled.
  555  00001704  00011020	add	r2,r0,r1
  556  00001708  23bd0010	addi	r29,r29,#16
  557  0000170c  6041ffff	seqi	r1,r2,#-1
  558  00001710  10200034	beqz	r1,L35_LF0
  559  00001714  54000000	nop; not filled.
  560  00001718  0c000130	jal	_getpid
  561  0000171c  54000000	nop; not filled.
  562  00001720  23bdfff8	addi	r29,r29,#-8
  563  00001724  3c070000	lhi	r7,((LC1_LF0)>>16)&0xffff
  564  00001728  24e73038	addui	r7,r7,(LC1_LF0)&0xffff
  565  0000172c  afa70000	sw	(r29),r7
  566  00001730  afa10004	sw	4(r29),r1
  567  00001734  0c000108	jal	_Printf
  568  00001738  54000000	nop; not filled.
  569  0000173c  0c000208	jal	_Exit
  570  00001740  54000000	nop; not filled.
  571  00001744  23bd0008	addi	r29,r29,#8
  572  00001748          	L35_LF0:
  573  00001748  23bdfff0	addi	r29,r29,#-16
  574  0000174c  3c070000	lhi	r7,((LC17_LF0)>>16)&0xffff
  575  00001750  24e7331c	addui	r7,r7,(LC17_LF0)&0xffff
  576  00001754  afa70000	sw	(r29),r7
  577  00001758  23c1ffe8	addi	r1,r30,#-24
  578  0000175c  afa10004	sw	4(r29),r1
  579  00001760  20070000	addi	r7,r0,#0
  580  00001764  afa70008	sw	8(r29),r7
  581  00001768  0c0000ec	jal	_process_create
  582  0000176c  54000000	nop; not filled.
  583  00001770  afa20000	sw	(r29),r2
  584  00001774  0c000110	jal	_sem_wait
  585  00001778  54000000	nop; not filled.
  586  0000177c  23bd0010	addi	r29,r29,#16
  587  00001780  64210001	snei	r1,r1,#1
  588  00001784  10200034	beqz	r1,L36_LF0
  589  00001788  54000000	nop; not filled.
  590  0000178c  23bdfff0	addi	r29,r29,#-16
  591  00001790  3c070000	lhi	r7,((LC5_LF0)>>16)&0xffff
  592  00001794  24e730e8	addui	r7,r7,(LC5_LF0)&0xffff
  593  00001798  afa70000	sw	(r29),r7
  594  0000179c  afa20004	sw	4(r29),r2
  595  000017a0  8ca50000	lw	r5,(r5)
  596  000017a4  afa50008	sw	8(r29),r5
  597  000017a8  0c000094	jal	_Printf
  598  000017ac  54000000	nop; not filled.
  599  000017b0  0c000194	jal	_Exit
  600  000017b4  54000000	nop; not filled.
  601  000017b8  23bd0010	addi	r29,r29,#16
  602  000017bc          	L36_LF0:
  603  000017bc  23bdfff8	addi	r29,r29,#-8
  604  000017c0  afa40000	sw	(r29),r4
  605  000017c4  0c000078	jal	_Printf
  606  000017c8  54000000	nop; not filled.
  607  000017cc  0c00007c	jal	_getpid
  608  000017d0  54000000	nop; not filled.
  609  000017d4  3c070000	lhi	r7,((LC18_LF0)>>16)&0xffff
  610  000017d8  24e7332c	addui	r7,r7,(LC18_LF0)&0xffff
  611  000017dc  afa70000	sw	(r29),r7
  612  000017e0  afa10004	sw	4(r29),r1
  613  000017e4  0c000058	jal	_Printf
  614  000017e8  54000000	nop; not filled.
  615  000017ec  23bd0008	addi	r29,r29,#8
  616  000017f0  0c000f00	jal	_exit
  617  000017f4  54000000	nop
  618  000017f8          	.endproc _main
  619                      ;;;
  620                      ;;; Stub functions for DLX traps.
  621                      ;;;
  622                      ;;; Ethan L. Miller, 1999.  Released to the public domain.
  623                      ;;;
  624                      ;;; The traps such as Open and Close
  625                      ;;; (note the capital letters) are for use by user programs.  The traps
  626                      ;;; with names such as open and close (lower case) are for use by the OS.
  627                      ;;;
  630  000017f8          	.align 2
  632                      ;;; The following are the traps to be used by user-level programs
  633                      ;;;
  635  000017f8          	.align 2
  636  000017f8          	.proc _Open
  637  000017f8          	.global _Open
  638  000017f8          	_Open:
  639                      ;;; Note that trap #0x213 actually causes a trap vector in the OS of
  640                      ;;; 0x1213.  The same is true for other user traps.  Thus, a user trap
  641                      ;;; with trap #0x240 will result in a trap vector of 0x1240 in the OS.
  642  000017f8  44000213	trap	#0x213
  643  000017fc  4be00000	jr	r31
  644  00001800  54000000	nop
  645  00001804          	.endproc _Open
  647  00001804          	.proc _Close
  648  00001804          	.global _Close
  649  00001804          	_Close:
  650  00001804  44000214	trap	#0x214
  651  00001808  4be00000	jr	r31
  652  0000180c  54000000	nop
  653  00001810          	.endproc _Close
  655  00001810          	.proc _Read
  656  00001810          	.global _Read
  657  00001810          	_Read:
  658  00001810  44000210	trap	#0x210
  659  00001814  4be00000	jr	r31
  660  00001818  54000000	nop
  661  0000181c          	.endproc _Read
  663  0000181c          	.proc _Write
  664  0000181c          	.global _Write
  665  0000181c          	_Write:
  666  0000181c  44000211	trap	#0x211
  667  00001820  4be00000	jr	r31
  668  00001824  54000000	nop
  669  00001828          	.endproc _Write
  671  00001828          	.proc _Lseek
  672  00001828          	.global _Lseek
  673  00001828          	_Lseek:
  674  00001828  44000212	trap	#0x212
  675  0000182c  4be00000	jr	r31
  676  00001830  54000000	nop
  677  00001834          	.endproc _Lseek
  679  00001834          	.proc _Putchar
  680  00001834          	.global _Putchar
  681  00001834          	_Putchar:
  682  00001834  44000280	trap	#0x280
  683  00001838  4be00000	jr	r31
  684  0000183c  54000000	nop
  685  00001840          	.endproc _Putchar
  687  00001840          	.proc _Printf
  688  00001840          	.global _Printf
  689  00001840          	_Printf:
  690  00001840  44000201	trap	#0x201
  691  00001844  4be00000	jr	r31
  692  00001848  54000000	nop
  693  0000184c          	.endproc _Printf
  695  0000184c          	.proc _getpid
  696  0000184c          	.global _getpid
  697  0000184c          	_getpid:
  698  0000184c  44000431	trap	#0x431
  699  00001850  4be00000	jr	r31
  700  00001854  54000000	nop
  701  00001858          	.endproc _getpid
  703  00001858          	.proc _process_create
  704  00001858          	.global _process_create
  705  00001858          	_process_create:
  706  00001858  44000432	trap	#0x432
  707  0000185c  4be00000	jr	r31
  708  00001860  54000000	nop
  709  00001864          	.endproc _process_create
  711  00001864          	.proc _shmget
  712  00001864          	.global _shmget
  713  00001864          	_shmget:
  714  00001864  44000440	trap	#0x440
  715  00001868  4be00000	jr	r31
  716  0000186c  54000000	nop
  717  00001870          	.endproc _shmget
  719  00001870          	.proc _shmat
  720  00001870          	.global _shmat
  721  00001870          	_shmat:
  722  00001870  44000441	trap	#0x441
  723  00001874  4be00000	jr	r31
  724  00001878  54000000	nop
  725  0000187c          	.endproc _shmat
  727  0000187c          	.proc _sem_create
  728  0000187c          	.global _sem_create
  729  0000187c          	_sem_create:
  730  0000187c  44000450	trap	#0x450
  731  00001880  4be00000	jr	r31
  732  00001884  54000000	nop
  733  00001888          	.endproc _sem_create
  735  00001888          	.proc _sem_wait
  736  00001888          	.global _sem_wait
  737  00001888          	_sem_wait:
  738  00001888  44000451	trap	#0x451
  739  0000188c  4be00000	jr	r31
  740  00001890  54000000	nop
  741  00001894          	.endproc _sem_wait
  743  00001894          	.proc _sem_signal
  744  00001894          	.global _sem_signal
  745  00001894          	_sem_signal:
  746  00001894  44000452	trap	#0x452
  747  00001898  4be00000	jr	r31
  748  0000189c  54000000	nop
  749  000018a0          	.endproc _sem_signal
  751  000018a0          	.proc _lock_create
  752  000018a0          	.global _lock_create
  753  000018a0          	_lock_create:
  754  000018a0  44000453	trap	#0x453
  755  000018a4  4be00000	jr	r31
  756  000018a8  54000000	nop
  757  000018ac          	.endproc _lock_create
  759  000018ac          	.proc _lock_acquire
  760  000018ac          	.global _lock_acquire
  761  000018ac          	_lock_acquire:
  762  000018ac  44000454	trap	#0x454
  763  000018b0  4be00000	jr	r31
  764  000018b4  54000000	nop
  765  000018b8          	.endproc _lock_acquire
  767  000018b8          	.proc _lock_release
  768  000018b8          	.global _lock_release
  769  000018b8          	_lock_release:
  770  000018b8  44000455	trap	#0x455
  771  000018bc  4be00000	jr	r31
  772  000018c0  54000000	nop
  773  000018c4          	.endproc _lock_release
  775  000018c4          	.proc _cond_create
  776  000018c4          	.global _cond_create
  777  000018c4          	_cond_create:
  778  000018c4  44000456	trap	#0x456
  779  000018c8  4be00000	jr	r31
  780  000018cc  54000000	nop
  781  000018d0          	.endproc _cond_create
  783  000018d0          	.proc _cond_wait
  784  000018d0          	.global _cond_wait
  785  000018d0          	_cond_wait:
  786  000018d0  44000457	trap	#0x457
  787  000018d4  4be00000	jr	r31
  788  000018d8  54000000	nop
  789  000018dc          	.endproc _cond_wait
  791  000018dc          	.proc _cond_signal
  792  000018dc          	.global _cond_signal
  793  000018dc          	_cond_signal:
  794  000018dc  44000458	trap	#0x458
  795  000018e0  4be00000	jr	r31
  796  000018e4  54000000	nop
  797  000018e8          	.endproc _cond_signal
  799  000018e8          	.proc _cond_broadcast
  800  000018e8          	.global _cond_broadcast
  801  000018e8          	_cond_broadcast:
  802  000018e8  44000459	trap	#0x459
  803  000018ec  4be00000	jr	r31
  804  000018f0  54000000	nop
  805  000018f4          	.endproc _cond_broadcast
  807  000018f4          	.proc _mbox_create
  808  000018f4          	.global _mbox_create
  809  000018f4          	_mbox_create:
  810  000018f4  44000460	trap	#0x460
  811  000018f8  4be00000	jr	r31
  812  000018fc  54000000	nop
  813  00001900          	.endproc _mbox_create
  815  00001900          	.proc _mbox_open
  816  00001900          	.global _mbox_open
  817  00001900          	_mbox_open:
  818  00001900  44000461	trap	#0x461
  819  00001904  4be00000	jr	r31
  820  00001908  54000000	nop
  821  0000190c          	.endproc _mbox_open
  823  0000190c          	.proc _mbox_close
  824  0000190c          	.global _mbox_close
  825  0000190c          	_mbox_close:
  826  0000190c  44000462	trap	#0x462
  827  00001910  4be00000	jr	r31
  828  00001914  54000000	nop
  829  00001918          	.endproc _mbox_close
  831  00001918          	.proc _mbox_send
  832  00001918          	.global _mbox_send
  833  00001918          	_mbox_send:
  834  00001918  44000463	trap	#0x463
  835  0000191c  4be00000	jr	r31
  836  00001920  54000000	nop
  837  00001924          	.endproc _mbox_send
  839  00001924          	.proc _mbox_recv
  840  00001924          	.global _mbox_recv
  841  00001924          	_mbox_recv:
  842  00001924  44000464	trap	#0x464
  843  00001928  4be00000	jr	r31
  844  0000192c  54000000	nop
  845  00001930          	.endproc _mbox_recv
  847  00001930          	.proc _sleep
  848  00001930          	.global _sleep
  849  00001930          	_sleep:
  850  00001930  44000465	trap	#0x465
  851  00001934  4be00000	jr	r31
  852  00001938  54000000	nop
  853  0000193c          	.endproc _sleep
  855  0000193c          	.proc _yield
  856  0000193c          	.global _yield
  857  0000193c          	_yield:
  858  0000193c  44000466	trap	#0x466
  859  00001940  4be00000	jr	r31
  860  00001944  54000000	nop
  861  00001948          	.endproc _yield
  864  00001948          	.proc _Exit
  865  00001948          	.global _Exit
  866  00001948          	_Exit:
  867  00001948  44000500	trap	#0x500
  868  0000194c  4be00000	jr	r31
  869  00001950  54000000	nop
  870  00001954          	.endproc _Exit
  873  00001954          	.proc _malloc
  874  00001954          	.global _malloc
  875  00001954          	_malloc:
  876  00001954  44000467	trap	#0x467
  877  00001958  4be00000	jr	r31
  878  0000195c          	.endproc _malloc
  881  0000195c          	.proc _mfree
  882  0000195c          	.global _mfree
  883  0000195c          	_mfree:
  884  0000195c  44000468	trap	#0x468
  885  00001960  4be00000	jr	r31
  886  00001964          	.endproc _mfree
  887                      ; Compiled by GCC
  889  00001964          	.align 2
  890  00001964          	.proc _isspace
  891  00001964          	.global _isspace
  892  00001964          	_isspace:
  893                      ;  Function 'isspace'; 0 bytes of locals, 3 regs to save.
  894  00001964  afbefffc	sw	-4(r29),r30; push fp
  895  00001968  001df020	add	r30,r0,r29; fp = sp
  896  0000196c  afbffff8	sw	-8(r29),r31; push ret addr
  897  00001970  2fbd0018	subui	r29,r29,#24; alloc local storage
  898  00001974  afa20000	sw	0(r29),r2
  899  00001978  afa30004	sw	4(r29),r3
  900  0000197c  afa40008	sw	8(r29),r4
  901  00001980  83c20003	lb	r2,3(r30)
  902  00001984  20010000	addi	r1,r0,#0
  903  00001988  304300ff	andi	r3,r2,#0x00ff
  904  0000198c  60640020	seqi	r4,r3,#32
  905  00001990  1480002c	bnez	r4,L3_LF2
  906  00001994  54000000	nop; delay slot nop
  907  00001998  304300ff	andi	r3,r2,#0x00ff
  908  0000199c  60640009	seqi	r4,r3,#9
  909  000019a0  1480001c	bnez	r4,L3_LF2
  910  000019a4  54000000	nop; delay slot nop
  911  000019a8  304300ff	andi	r3,r2,#0x00ff
  912  000019ac  6064000a	seqi	r4,r3,#10
  913  000019b0  1480000c	bnez	r4,L3_LF2
  914  000019b4  54000000	nop; delay slot nop
  915  000019b8  08000008	j	L2_LF2
  916  000019bc  54000000	nop; delay slot nop
  917  000019c0          	L3_LF2:
  918  000019c0  20010001	addi	r1,r0,#1
  919  000019c4          	L2_LF2:
  920  000019c4  08000004	j	L1_LF2
  921  000019c8  54000000	nop; delay slot nop
  922  000019cc          	L1_LF2:
  923  000019cc  8fa20000	lw	r2,0(r29)
  924  000019d0  8fa30004	lw	r3,4(r29)
  925  000019d4  8fa40008	lw	r4,8(r29)
  926  000019d8  8fdffff8	lw	r31,-8(r30)
  927  000019dc  001ee820	add	r29,r0,r30
  928  000019e0  8fdefffc	lw	r30,-4(r30)
  929  000019e4  4be00000	jr	r31
  930  000019e8  54000000	nop
  931  000019ec          	.endproc _isspace
  932  000019ec          	.align 2
  933  000019ec          	.proc _isxdigit
  934  000019ec          	.global _isxdigit
  935  000019ec          	_isxdigit:
  936                      ;  Function 'isxdigit'; 0 bytes of locals, 3 regs to save.
  937  000019ec  afbefffc	sw	-4(r29),r30; push fp
  938  000019f0  001df020	add	r30,r0,r29; fp = sp
  939  000019f4  afbffff8	sw	-8(r29),r31; push ret addr
  940  000019f8  2fbd0018	subui	r29,r29,#24; alloc local storage
  941  000019fc  afa20000	sw	0(r29),r2
  942  00001a00  afa30004	sw	4(r29),r3
  943  00001a04  afa40008	sw	8(r29),r4
  944  00001a08  83c20003	lb	r2,3(r30)
  945  00001a0c  20010000	addi	r1,r0,#0
  946  00001a10  304300ff	andi	r3,r2,#0x00ff
  947  00001a14  6c64002f	sgtui	r4,r3,#47
  948  00001a18  1080001c	beqz	r4,L7_LF2
  949  00001a1c  54000000	nop; delay slot nop
  950  00001a20  304300ff	andi	r3,r2,#0x00ff
  951  00001a24  70640039	sleui	r4,r3,#57
  952  00001a28  1480005c	bnez	r4,L6_LF2
  953  00001a2c  54000000	nop; delay slot nop
  954  00001a30  08000004	j	L7_LF2
  955  00001a34  54000000	nop; delay slot nop
  956  00001a38          	L7_LF2:
  957  00001a38  304300ff	andi	r3,r2,#0x00ff
  958  00001a3c  6c640060	sgtui	r4,r3,#96
  959  00001a40  1080001c	beqz	r4,L8_LF2
  960  00001a44  54000000	nop; delay slot nop
  961  00001a48  304300ff	andi	r3,r2,#0x00ff
  962  00001a4c  70640066	sleui	r4,r3,#102
  963  00001a50  14800034	bnez	r4,L6_LF2
  964  00001a54  54000000	nop; delay slot nop
  965  00001a58  08000004	j	L8_LF2
  966  00001a5c  54000000	nop; delay slot nop
  967  00001a60          	L8_LF2:
  968  00001a60  304300ff	andi	r3,r2,#0x00ff
  969  00001a64  6c640040	sgtui	r4,r3,#64
  970  00001a68  10800020	beqz	r4,L5_LF2
  971  00001a6c  54000000	nop; delay slot nop
  972  00001a70  304300ff	andi	r3,r2,#0x00ff
  973  00001a74  70640041	sleui	r4,r3,#65
  974  00001a78  1480000c	bnez	r4,L6_LF2
  975  00001a7c  54000000	nop; delay slot nop
  976  00001a80  08000008	j	L5_LF2
  977  00001a84  54000000	nop; delay slot nop
  978  00001a88          	L6_LF2:
  979  00001a88  20010001	addi	r1,r0,#1
  980  00001a8c          	L5_LF2:
  981  00001a8c  08000004	j	L4_LF2
  982  00001a90  54000000	nop; delay slot nop
  983  00001a94          	L4_LF2:
  984  00001a94  8fa20000	lw	r2,0(r29)
  985  00001a98  8fa30004	lw	r3,4(r29)
  986  00001a9c  8fa40008	lw	r4,8(r29)
  987  00001aa0  8fdffff8	lw	r31,-8(r30)
  988  00001aa4  001ee820	add	r29,r0,r30
  989  00001aa8  8fdefffc	lw	r30,-4(r30)
  990  00001aac  4be00000	jr	r31
  991  00001ab0  54000000	nop
  992  00001ab4          	.endproc _isxdigit
  993  00001ab4          	.align 2
  994  00001ab4          	.proc _dstrcpy
  995  00001ab4          	.global _dstrcpy
  996  00001ab4          	_dstrcpy:
  997                      ;  Function 'dstrcpy'; 8 bytes of locals, 2 regs to save.
  998  00001ab4  afbefffc	sw	-4(r29),r30; push fp
  999  00001ab8  001df020	add	r30,r0,r29; fp = sp
 1000  00001abc  afbffff8	sw	-8(r29),r31; push ret addr
 1001  00001ac0  2fbd0018	subui	r29,r29,#24; alloc local storage
 1002  00001ac4  afa20000	sw	0(r29),r2
 1003  00001ac8  afa30004	sw	4(r29),r3
 1004  00001acc  8fc10000	lw	r1,(r30)
 1005  00001ad0  afc1fff4	sw	-12(r30),r1
 1006  00001ad4          	L10_LF2:
 1007  00001ad4  8fc10000	lw	r1,(r30)
 1008  00001ad8  20220001	addi	r2,r1,#1
 1009  00001adc  afc20000	sw	(r30),r2
 1010  00001ae0  8fc20004	lw	r2,4(r30)
 1011  00001ae4  20430001	addi	r3,r2,#1
 1012  00001ae8  afc30004	sw	4(r30),r3
 1013  00001aec  80420000	lb	r2,(r2)
 1014  00001af0  a0220000	sb	(r1),r2
 1015  00001af4  a3c2fff3	sb	-13(r30),r2
 1016  00001af8          	L12_LF2:
 1017  00001af8  93c1fff3	lbu	r1,-13(r30)
 1018  00001afc  64220000	snei	r2,r1,#0
 1019  00001b00  1440000c	bnez	r2,L13_LF2
 1020  00001b04  54000000	nop; delay slot nop
 1021  00001b08  0800000c	j	L11_LF2
 1022  00001b0c  54000000	nop; delay slot nop
 1023  00001b10          	L13_LF2:
 1024  00001b10  0bffffc0	j	L10_LF2
 1025  00001b14  54000000	nop; delay slot nop
 1026  00001b18          	L11_LF2:
 1027  00001b18  8fc1fff4	lw	r1,-12(r30)
 1028  00001b1c  08000004	j	L9_LF2
 1029  00001b20  54000000	nop; delay slot nop
 1030  00001b24          	L9_LF2:
 1031  00001b24  8fa20000	lw	r2,0(r29)
 1032  00001b28  8fa30004	lw	r3,4(r29)
 1033  00001b2c  8fdffff8	lw	r31,-8(r30)
 1034  00001b30  001ee820	add	r29,r0,r30
 1035  00001b34  8fdefffc	lw	r30,-4(r30)
 1036  00001b38  4be00000	jr	r31
 1037  00001b3c  54000000	nop
 1038  00001b40          	.endproc _dstrcpy
 1039  00001b40          	.align 2
 1040  00001b40          	.proc _dstrncpy
 1041  00001b40          	.global _dstrncpy
 1042  00001b40          	_dstrncpy:
 1043                      ;  Function 'dstrncpy'; 8 bytes of locals, 2 regs to save.
 1044  00001b40  afbefffc	sw	-4(r29),r30; push fp
 1045  00001b44  001df020	add	r30,r0,r29; fp = sp
 1046  00001b48  afbffff8	sw	-8(r29),r31; push ret addr
 1047  00001b4c  2fbd0018	subui	r29,r29,#24; alloc local storage
 1048  00001b50  afa20000	sw	0(r29),r2
 1049  00001b54  afa30004	sw	4(r29),r3
 1050  00001b58  8fc10000	lw	r1,(r30)
 1051  00001b5c  afc1fff4	sw	-12(r30),r1
 1052  00001b60          	L15_LF2:
 1053  00001b60  8fc10008	lw	r1,8(r30)
 1054  00001b64  2022ffff	addi	r2,r1,#-1
 1055  00001b68  afc20008	sw	8(r30),r2
 1056  00001b6c  70210000	slei	r1,r1,#0
 1057  00001b70  1020000c	beqz	r1,L18_LF2
 1058  00001b74  54000000	nop; delay slot nop
 1059  00001b78  08000048	j	L16_LF2
 1060  00001b7c  54000000	nop; delay slot nop
 1061  00001b80          	L18_LF2:
 1062  00001b80  8fc10000	lw	r1,(r30)
 1063  00001b84  20220001	addi	r2,r1,#1
 1064  00001b88  afc20000	sw	(r30),r2
 1065  00001b8c  8fc20004	lw	r2,4(r30)
 1066  00001b90  20430001	addi	r3,r2,#1
 1067  00001b94  afc30004	sw	4(r30),r3
 1068  00001b98  80420000	lb	r2,(r2)
 1069  00001b9c  a0220000	sb	(r1),r2
 1070  00001ba0  a3c2fff3	sb	-13(r30),r2
 1071  00001ba4          	L17_LF2:
 1072  00001ba4  93c1fff3	lbu	r1,-13(r30)
 1073  00001ba8  64220000	snei	r2,r1,#0
 1074  00001bac  1440000c	bnez	r2,L19_LF2
 1075  00001bb0  54000000	nop; delay slot nop
 1076  00001bb4  0800000c	j	L16_LF2
 1077  00001bb8  54000000	nop; delay slot nop
 1078  00001bbc          	L19_LF2:
 1079  00001bbc  0bffffa0	j	L15_LF2
 1080  00001bc0  54000000	nop; delay slot nop
 1081  00001bc4          	L16_LF2:
 1082  00001bc4  8fc1fff4	lw	r1,-12(r30)
 1083  00001bc8  08000004	j	L14_LF2
 1084  00001bcc  54000000	nop; delay slot nop
 1085  00001bd0          	L14_LF2:
 1086  00001bd0  8fa20000	lw	r2,0(r29)
 1087  00001bd4  8fa30004	lw	r3,4(r29)
 1088  00001bd8  8fdffff8	lw	r31,-8(r30)
 1089  00001bdc  001ee820	add	r29,r0,r30
 1090  00001be0  8fdefffc	lw	r30,-4(r30)
 1091  00001be4  4be00000	jr	r31
 1092  00001be8  54000000	nop
 1093  00001bec          	.endproc _dstrncpy
 1094  00001bec          	.align 2
 1095  00001bec          	.proc _dstrcat
 1096  00001bec          	.global _dstrcat
 1097  00001bec          	_dstrcat:
 1098                      ;  Function 'dstrcat'; 8 bytes of locals, 1 regs to save.
 1099  00001bec  afbefffc	sw	-4(r29),r30; push fp
 1100  00001bf0  001df020	add	r30,r0,r29; fp = sp
 1101  00001bf4  afbffff8	sw	-8(r29),r31; push ret addr
 1102  00001bf8  2fbd0018	subui	r29,r29,#24; alloc local storage
 1103  00001bfc  afa20000	sw	0(r29),r2
 1104  00001c00  8fc10000	lw	r1,(r30)
 1105  00001c04  afc1fff4	sw	-12(r30),r1
 1106  00001c08          	L21_LF2:
 1107  00001c08  8fc10000	lw	r1,(r30)
 1108  00001c0c  90220000	lbu	r2,(r1)
 1109  00001c10  64410000	snei	r1,r2,#0
 1110  00001c14  1420000c	bnez	r1,L23_LF2
 1111  00001c18  54000000	nop; delay slot nop
 1112  00001c1c  0800001c	j	L22_LF2
 1113  00001c20  54000000	nop; delay slot nop
 1114  00001c24          	L23_LF2:
 1115  00001c24  8fc20000	lw	r2,(r30)
 1116  00001c28  20410001	addi	r1,r2,#1
 1117  00001c2c  00011020	add	r2,r0,r1
 1118  00001c30  afc20000	sw	(r30),r2
 1119  00001c34  0bffffd0	j	L21_LF2
 1120  00001c38  54000000	nop; delay slot nop
 1121  00001c3c          	L22_LF2:
 1122  00001c3c  23bdfff8	addi	r29,r29,#-8
 1123  00001c40  001d0820	add	r1,r0,r29
 1124  00001c44  8fc20000	lw	r2,(r30)
 1125  00001c48  ac220000	sw	(r1),r2
 1126  00001c4c  8fc20004	lw	r2,4(r30)
 1127  00001c50  ac220004	sw	4(r1),r2
 1128  00001c54  0ffffe5c	jal	_dstrcpy
 1129  00001c58  54000000	nop; delay slot nop
 1130  00001c5c  23bd0008	addi	r29,r29,#8
 1131  00001c60  8fc1fff4	lw	r1,-12(r30)
 1132  00001c64  08000004	j	L20_LF2
 1133  00001c68  54000000	nop; delay slot nop
 1134  00001c6c          	L20_LF2:
 1135  00001c6c  8fa20000	lw	r2,0(r29)
 1136  00001c70  8fdffff8	lw	r31,-8(r30)
 1137  00001c74  001ee820	add	r29,r0,r30
 1138  00001c78  8fdefffc	lw	r30,-4(r30)
 1139  00001c7c  4be00000	jr	r31
 1140  00001c80  54000000	nop
 1141  00001c84          	.endproc _dstrcat
 1142  00001c84          	.align 2
 1143  00001c84          	.proc _dstrncmp
 1144  00001c84          	.global _dstrncmp
 1145  00001c84          	_dstrncmp:
 1146                      ;  Function 'dstrncmp'; 8 bytes of locals, 2 regs to save.
 1147  00001c84  afbefffc	sw	-4(r29),r30; push fp
 1148  00001c88  001df020	add	r30,r0,r29; fp = sp
 1149  00001c8c  afbffff8	sw	-8(r29),r31; push ret addr
 1150  00001c90  2fbd0018	subui	r29,r29,#24; alloc local storage
 1151  00001c94  afa20000	sw	0(r29),r2
 1152  00001c98  afa30004	sw	4(r29),r3
 1153  00001c9c  54000000	nop
 1154  00001ca0  20010000	addi	r1,r0,#0
 1155  00001ca4  afc1fff4	sw	-12(r30),r1
 1156  00001ca8          	L25_LF2:
 1157  00001ca8  8fc1fff4	lw	r1,-12(r30)
 1158  00001cac  8fc20008	lw	r2,8(r30)
 1159  00001cb0  0022082a	slt	r1,r1,r2
 1160  00001cb4  1420000c	bnez	r1,L28_LF2
 1161  00001cb8  54000000	nop; delay slot nop
 1162  00001cbc  08000088	j	L26_LF2
 1163  00001cc0  54000000	nop; delay slot nop
 1164  00001cc4          	L28_LF2:
 1165  00001cc4  8fc10004	lw	r1,4(r30)
 1166  00001cc8  90220000	lbu	r2,(r1)
 1167  00001ccc  64410000	snei	r1,r2,#0
 1168  00001cd0  14200018	bnez	r1,L29_LF2
 1169  00001cd4  54000000	nop; delay slot nop
 1170  00001cd8  20010000	addi	r1,r0,#0
 1171  00001cdc  080000d8	j	L24_LF2
 1172  00001ce0  54000000	nop; delay slot nop
 1173  00001ce4  08000028	j	L30_LF2
 1174  00001ce8  54000000	nop; delay slot nop
 1175  00001cec          	L29_LF2:
 1176  00001cec  8fc10000	lw	r1,(r30)
 1177  00001cf0  8fc20004	lw	r2,4(r30)
 1178  00001cf4  90210000	lbu	r1,(r1)
 1179  00001cf8  90420000	lbu	r2,(r2)
 1180  00001cfc  00220829	sne	r1,r1,r2
 1181  00001d00  1020000c	beqz	r1,L30_LF2
 1182  00001d04  54000000	nop; delay slot nop
 1183  00001d08  0800003c	j	L26_LF2
 1184  00001d0c  54000000	nop; delay slot nop
 1185  00001d10          	L31_LF2:
 1186  00001d10          	L30_LF2:
 1187  00001d10  8fc20000	lw	r2,(r30)
 1188  00001d14  20410001	addi	r1,r2,#1
 1189  00001d18  00011020	add	r2,r0,r1
 1190  00001d1c  afc20000	sw	(r30),r2
 1191  00001d20  8fc20004	lw	r2,4(r30)
 1192  00001d24  20410001	addi	r1,r2,#1
 1193  00001d28  00011020	add	r2,r0,r1
 1194  00001d2c  afc20004	sw	4(r30),r2
 1195  00001d30          	L27_LF2:
 1196  00001d30  8fc2fff4	lw	r2,-12(r30)
 1197  00001d34  20410001	addi	r1,r2,#1
 1198  00001d38  00011020	add	r2,r0,r1
 1199  00001d3c  afc2fff4	sw	-12(r30),r2
 1200  00001d40  0bffff64	j	L25_LF2
 1201  00001d44  54000000	nop; delay slot nop
 1202  00001d48          	L26_LF2:
 1203  00001d48  8fc1fff4	lw	r1,-12(r30)
 1204  00001d4c  8fc20008	lw	r2,8(r30)
 1205  00001d50  00220828	seq	r1,r1,r2
 1206  00001d54  10200018	beqz	r1,L32_LF2
 1207  00001d58  54000000	nop; delay slot nop
 1208  00001d5c  20010000	addi	r1,r0,#0
 1209  00001d60  08000054	j	L24_LF2
 1210  00001d64  54000000	nop; delay slot nop
 1211  00001d68  0800004c	j	L33_LF2
 1212  00001d6c  54000000	nop; delay slot nop
 1213  00001d70          	L32_LF2:
 1214  00001d70  8fc20000	lw	r2,(r30)
 1215  00001d74  90410000	lbu	r1,(r2)
 1216  00001d78  8fc20004	lw	r2,4(r30)
 1217  00001d7c  90430000	lbu	r3,(r2)
 1218  00001d80  00230822	sub	r1,r1,r3
 1219  00001d84  74220000	sgei	r2,r1,#0
 1220  00001d88  10400020	beqz	r2,L34_LF2
 1221  00001d8c  54000000	nop; delay slot nop
 1222  00001d90  8fc10000	lw	r1,(r30)
 1223  00001d94  8fc20004	lw	r2,4(r30)
 1224  00001d98  90210000	lbu	r1,(r1)
 1225  00001d9c  90420000	lbu	r2,(r2)
 1226  00001da0  00220829	sne	r1,r1,r2
 1227  00001da4  08000008	j	L35_LF2
 1228  00001da8  54000000	nop; delay slot nop
 1229  00001dac          	L34_LF2:
 1230  00001dac  2001ffff	addi	r1,r0,#-1
 1231  00001db0          	L35_LF2:
 1232  00001db0  08000004	j	L24_LF2
 1233  00001db4  54000000	nop; delay slot nop
 1234  00001db8          	L33_LF2:
 1235  00001db8          	L24_LF2:
 1236  00001db8  8fa20000	lw	r2,0(r29)
 1237  00001dbc  8fa30004	lw	r3,4(r29)
 1238  00001dc0  8fdffff8	lw	r31,-8(r30)
 1239  00001dc4  001ee820	add	r29,r0,r30
 1240  00001dc8  8fdefffc	lw	r30,-4(r30)
 1241  00001dcc  4be00000	jr	r31
 1242  00001dd0  54000000	nop
 1243  00001dd4          	.endproc _dstrncmp
 1244  00001dd4          	.align 2
 1245  00001dd4          	.proc _dstrlen
 1246  00001dd4          	.global _dstrlen
 1247  00001dd4          	_dstrlen:
 1248                      ;  Function 'dstrlen'; 8 bytes of locals, 1 regs to save.
 1249  00001dd4  afbefffc	sw	-4(r29),r30; push fp
 1250  00001dd8  001df020	add	r30,r0,r29; fp = sp
 1251  00001ddc  afbffff8	sw	-8(r29),r31; push ret addr
 1252  00001de0  2fbd0018	subui	r29,r29,#24; alloc local storage
 1253  00001de4  afa20000	sw	0(r29),r2
 1254  00001de8  20010000	addi	r1,r0,#0
 1255  00001dec  afc1fff4	sw	-12(r30),r1
 1256  00001df0          	L37_LF2:
 1257  00001df0  8fc10000	lw	r1,(r30)
 1258  00001df4  20220001	addi	r2,r1,#1
 1259  00001df8  afc20000	sw	(r30),r2
 1260  00001dfc  90210000	lbu	r1,(r1)
 1261  00001e00  64220000	snei	r2,r1,#0
 1262  00001e04  1440000c	bnez	r2,L39_LF2
 1263  00001e08  54000000	nop; delay slot nop
 1264  00001e0c  0800001c	j	L38_LF2
 1265  00001e10  54000000	nop; delay slot nop
 1266  00001e14          	L39_LF2:
 1267  00001e14  8fc2fff4	lw	r2,-12(r30)
 1268  00001e18  20410001	addi	r1,r2,#1
 1269  00001e1c  00011020	add	r2,r0,r1
 1270  00001e20  afc2fff4	sw	-12(r30),r2
 1271  00001e24  0bffffc8	j	L37_LF2
 1272  00001e28  54000000	nop; delay slot nop
 1273  00001e2c          	L38_LF2:
 1274  00001e2c  8fc1fff4	lw	r1,-12(r30)
 1275  00001e30  08000004	j	L36_LF2
 1276  00001e34  54000000	nop; delay slot nop
 1277  00001e38          	L36_LF2:
 1278  00001e38  8fa20000	lw	r2,0(r29)
 1279  00001e3c  8fdffff8	lw	r31,-8(r30)
 1280  00001e40  001ee820	add	r29,r0,r30
 1281  00001e44  8fdefffc	lw	r30,-4(r30)
 1282  00001e48  4be00000	jr	r31
 1283  00001e4c  54000000	nop
 1284  00001e50          	.endproc _dstrlen
 1285  00001e50          	.align 2
 1286  00001e50          	.proc _dstrstr
 1287  00001e50          	.global _dstrstr
 1288  00001e50          	_dstrstr:
 1289                      ;  Function 'dstrstr'; 8 bytes of locals, 1 regs to save.
 1290  00001e50  afbefffc	sw	-4(r29),r30; push fp
 1291  00001e54  001df020	add	r30,r0,r29; fp = sp
 1292  00001e58  afbffff8	sw	-8(r29),r31; push ret addr
 1293  00001e5c  2fbd0018	subui	r29,r29,#24; alloc local storage
 1294  00001e60  afa20000	sw	0(r29),r2
 1295  00001e64  23bdfff8	addi	r29,r29,#-8
 1296  00001e68  001d0820	add	r1,r0,r29
 1297  00001e6c  8fc20004	lw	r2,4(r30)
 1298  00001e70  ac220000	sw	(r1),r2
 1299  00001e74  0fffff5c	jal	_dstrlen
 1300  00001e78  54000000	nop; delay slot nop
 1301  00001e7c  23bd0008	addi	r29,r29,#8
 1302  00001e80  afc1fff4	sw	-12(r30),r1
 1303  00001e84          	L41_LF2:
 1304  00001e84  8fc10000	lw	r1,(r30)
 1305  00001e88  90220000	lbu	r2,(r1)
 1306  00001e8c  64410000	snei	r1,r2,#0
 1307  00001e90  1420000c	bnez	r1,L43_LF2
 1308  00001e94  54000000	nop; delay slot nop
 1309  00001e98  08000060	j	L42_LF2
 1310  00001e9c  54000000	nop; delay slot nop
 1311  00001ea0          	L43_LF2:
 1312  00001ea0  23bdfff0	addi	r29,r29,#-16
 1313  00001ea4  001d0820	add	r1,r0,r29
 1314  00001ea8  8fc20000	lw	r2,(r30)
 1315  00001eac  ac220000	sw	(r1),r2
 1316  00001eb0  8fc20004	lw	r2,4(r30)
 1317  00001eb4  ac220004	sw	4(r1),r2
 1318  00001eb8  8fc2fff4	lw	r2,-12(r30)
 1319  00001ebc  ac220008	sw	8(r1),r2
 1320  00001ec0  0ffffdc0	jal	_dstrncmp
 1321  00001ec4  54000000	nop; delay slot nop
 1322  00001ec8  23bd0010	addi	r29,r29,#16
 1323  00001ecc  64220000	snei	r2,r1,#0
 1324  00001ed0  14400010	bnez	r2,L44_LF2
 1325  00001ed4  54000000	nop; delay slot nop
 1326  00001ed8  8fc10000	lw	r1,(r30)
 1327  00001edc  08000028	j	L40_LF2
 1328  00001ee0  54000000	nop; delay slot nop
 1329  00001ee4          	L44_LF2:
 1330  00001ee4  8fc20000	lw	r2,(r30)
 1331  00001ee8  20410001	addi	r1,r2,#1
 1332  00001eec  00011020	add	r2,r0,r1
 1333  00001ef0  afc20000	sw	(r30),r2
 1334  00001ef4  0bffff8c	j	L41_LF2
 1335  00001ef8  54000000	nop; delay slot nop
 1336  00001efc          	L42_LF2:
 1337  00001efc  20010000	addi	r1,r0,#0
 1338  00001f00  08000004	j	L40_LF2
 1339  00001f04  54000000	nop; delay slot nop
 1340  00001f08          	L40_LF2:
 1341  00001f08  8fa20000	lw	r2,0(r29)
 1342  00001f0c  8fdffff8	lw	r31,-8(r30)
 1343  00001f10  001ee820	add	r29,r0,r30
 1344  00001f14  8fdefffc	lw	r30,-4(r30)
 1345  00001f18  4be00000	jr	r31
 1346  00001f1c  54000000	nop
 1347  00001f20          	.endproc _dstrstr
 1348  00001f20          	.align 2
 1349  00001f20          	.proc _dmindex
 1350  00001f20          	.global _dmindex
 1351  00001f20          	_dmindex:
 1352                      ;  Function 'dmindex'; 8 bytes of locals, 1 regs to save.
 1353  00001f20  afbefffc	sw	-4(r29),r30; push fp
 1354  00001f24  001df020	add	r30,r0,r29; fp = sp
 1355  00001f28  afbffff8	sw	-8(r29),r31; push ret addr
 1356  00001f2c  2fbd0018	subui	r29,r29,#24; alloc local storage
 1357  00001f30  afa20000	sw	0(r29),r2
 1358  00001f34  54000000	nop
 1359  00001f38          	L46_LF2:
 1360  00001f38  8fc10000	lw	r1,(r30)
 1361  00001f3c  90220000	lbu	r2,(r1)
 1362  00001f40  64410000	snei	r1,r2,#0
 1363  00001f44  1420000c	bnez	r1,L48_LF2
 1364  00001f48  54000000	nop; delay slot nop
 1365  00001f4c  08000070	j	L47_LF2
 1366  00001f50  54000000	nop; delay slot nop
 1367  00001f54          	L48_LF2:
 1368  00001f54  8fc10004	lw	r1,4(r30)
 1369  00001f58  afc1fff4	sw	-12(r30),r1
 1370  00001f5c          	L49_LF2:
 1371  00001f5c  8fc1fff4	lw	r1,-12(r30)
 1372  00001f60  90220000	lbu	r2,(r1)
 1373  00001f64  64410000	snei	r1,r2,#0
 1374  00001f68  1420000c	bnez	r1,L52_LF2
 1375  00001f6c  54000000	nop; delay slot nop
 1376  00001f70  08000044	j	L50_LF2
 1377  00001f74  54000000	nop; delay slot nop
 1378  00001f78          	L52_LF2:
 1379  00001f78  8fc10000	lw	r1,(r30)
 1380  00001f7c  8fc2fff4	lw	r2,-12(r30)
 1381  00001f80  90210000	lbu	r1,(r1)
 1382  00001f84  90420000	lbu	r2,(r2)
 1383  00001f88  00220828	seq	r1,r1,r2
 1384  00001f8c  10200010	beqz	r1,L51_LF2
 1385  00001f90  54000000	nop; delay slot nop
 1386  00001f94  8fc10000	lw	r1,(r30)
 1387  00001f98  08000030	j	L45_LF2
 1388  00001f9c  54000000	nop; delay slot nop
 1389  00001fa0          	L53_LF2:
 1390  00001fa0          	L51_LF2:
 1391  00001fa0  8fc2fff4	lw	r2,-12(r30)
 1392  00001fa4  20410001	addi	r1,r2,#1
 1393  00001fa8  00011020	add	r2,r0,r1
 1394  00001fac  afc2fff4	sw	-12(r30),r2
 1395  00001fb0  0bffffa8	j	L49_LF2
 1396  00001fb4  54000000	nop; delay slot nop
 1397  00001fb8          	L50_LF2:
 1398  00001fb8  0bffff7c	j	L46_LF2
 1399  00001fbc  54000000	nop; delay slot nop
 1400  00001fc0          	L47_LF2:
 1401  00001fc0  20010000	addi	r1,r0,#0
 1402  00001fc4  08000004	j	L45_LF2
 1403  00001fc8  54000000	nop; delay slot nop
 1404  00001fcc          	L45_LF2:
 1405  00001fcc  8fa20000	lw	r2,0(r29)
 1406  00001fd0  8fdffff8	lw	r31,-8(r30)
 1407  00001fd4  001ee820	add	r29,r0,r30
 1408  00001fd8  8fdefffc	lw	r30,-4(r30)
 1409  00001fdc  4be00000	jr	r31
 1410  00001fe0  54000000	nop
 1411  00001fe4          	.endproc _dmindex
 1412  00001fe4          	.align 2
 1413  00001fe4          	.proc _dindex
 1414  00001fe4          	.global _dindex
 1415  00001fe4          	_dindex:
 1416                      ;  Function 'dindex'; 0 bytes of locals, 1 regs to save.
 1417  00001fe4  afbefffc	sw	-4(r29),r30; push fp
 1418  00001fe8  001df020	add	r30,r0,r29; fp = sp
 1419  00001fec  afbffff8	sw	-8(r29),r31; push ret addr
 1420  00001ff0  2fbd0010	subui	r29,r29,#16; alloc local storage
 1421  00001ff4  afa20000	sw	0(r29),r2
 1422  00001ff8  54000000	nop
 1423  00001ffc          	L55_LF2:
 1424  00001ffc  8fc10000	lw	r1,(r30)
 1425  00002000  90220000	lbu	r2,(r1)
 1426  00002004  64410000	snei	r1,r2,#0
 1427  00002008  1420000c	bnez	r1,L57_LF2
 1428  0000200c  54000000	nop; delay slot nop
 1429  00002010  08000040	j	L56_LF2
 1430  00002014  54000000	nop; delay slot nop
 1431  00002018          	L57_LF2:
 1432  00002018  8fc10000	lw	r1,(r30)
 1433  0000201c  90220000	lbu	r2,(r1)
 1434  00002020  8fc10004	lw	r1,4(r30)
 1435  00002024  00411028	seq	r2,r2,r1
 1436  00002028  10400010	beqz	r2,L58_LF2
 1437  0000202c  54000000	nop; delay slot nop
 1438  00002030  8fc10000	lw	r1,(r30)
 1439  00002034  08000028	j	L54_LF2
 1440  00002038  54000000	nop; delay slot nop
 1441  0000203c          	L58_LF2:
 1442  0000203c  8fc20000	lw	r2,(r30)
 1443  00002040  20410001	addi	r1,r2,#1
 1444  00002044  00011020	add	r2,r0,r1
 1445  00002048  afc20000	sw	(r30),r2
 1446  0000204c  0bffffac	j	L55_LF2
 1447  00002050  54000000	nop; delay slot nop
 1448  00002054          	L56_LF2:
 1449  00002054  20010000	addi	r1,r0,#0
 1450  00002058  08000004	j	L54_LF2
 1451  0000205c  54000000	nop; delay slot nop
 1452  00002060          	L54_LF2:
 1453  00002060  8fa20000	lw	r2,0(r29)
 1454  00002064  8fdffff8	lw	r31,-8(r30)
 1455  00002068  001ee820	add	r29,r0,r30
 1456  0000206c  8fdefffc	lw	r30,-4(r30)
 1457  00002070  4be00000	jr	r31
 1458  00002074  54000000	nop
 1459  00002078          	.endproc _dindex
 1460  00002078          	.align 2
 1461  00002078          	.proc _ditoa
 1462  00002078          	.global _ditoa
 1463  00002078          	_ditoa:
 1464                      ;  Function 'ditoa'; 8 bytes of locals, 2 regs to save.
 1465  00002078  afbefffc	sw	-4(r29),r30; push fp
 1466  0000207c  001df020	add	r30,r0,r29; fp = sp
 1467  00002080  afbffff8	sw	-8(r29),r31; push ret addr
 1468  00002084  2fbd0018	subui	r29,r29,#24; alloc local storage
 1469  00002088  afa20000	sw	0(r29),r2
 1470  0000208c  afa30004	sw	4(r29),r3
 1471  00002090  8fc10000	lw	r1,(r30)
 1472  00002094  68220000	slti	r2,r1,#0
 1473  00002098  1040002c	beqz	r2,L60_LF2
 1474  0000209c  54000000	nop; delay slot nop
 1475  000020a0  8fc10004	lw	r1,4(r30)
 1476  000020a4  20220001	addi	r2,r1,#1
 1477  000020a8  afc20004	sw	4(r30),r2
 1478  000020ac  2002002d	addi	r2,r0,(#0x2d)&0xff
 1479  000020b0  a0220000	sb	(r1),r2
 1480  000020b4  8fc10000	lw	r1,(r30)
 1481  000020b8  00011022	sub	r2,r0,r1
 1482  000020bc  afc20000	sw	(r30),r2
 1483  000020c0  08000118	j	L61_LF2
 1484  000020c4  54000000	nop; delay slot nop
 1485  000020c8          	L60_LF2:
 1486  000020c8  8fc10000	lw	r1,(r30)
 1487  000020cc  64220000	snei	r2,r1,#0
 1488  000020d0  14400020	bnez	r2,L62_LF2
 1489  000020d4  54000000	nop; delay slot nop
 1490  000020d8  8fc10004	lw	r1,4(r30)
 1491  000020dc  20220001	addi	r2,r1,#1
 1492  000020e0  afc20004	sw	4(r30),r2
 1493  000020e4  20020030	addi	r2,r0,(#0x30)&0xff
 1494  000020e8  a0220000	sb	(r1),r2
 1495  000020ec  080000ec	j	L61_LF2
 1496  000020f0  54000000	nop; delay slot nop
 1497  000020f4          	L62_LF2:
 1498  000020f4  20010001	addi	r1,r0,#1
 1499  000020f8  afc1fff4	sw	-12(r30),r1
 1500  000020fc          	L64_LF2:
 1501  000020fc  8fc1fff4	lw	r1,-12(r30)
 1502  00002100  8fc20000	lw	r2,(r30)
 1503  00002104  0022082c	sle	r1,r1,r2
 1504  00002108  1420000c	bnez	r1,L66_LF2
 1505  0000210c  54000000	nop; delay slot nop
 1506  00002110  08000024	j	L65_LF2
 1507  00002114  54000000	nop; delay slot nop
 1508  00002118          	L67_LF2:
 1509  00002118          	L66_LF2:
 1510  00002118  8fc1fff4	lw	r1,-12(r30)
 1511  0000211c  00011820	add	r3,r0,r1
 1512  00002120  50620002	slli	r2,r3,#0x2
 1513  00002124  00411020	add	r2,r2,r1
 1514  00002128  50410001	slli	r1,r2,#0x1
 1515  0000212c  afc1fff4	sw	-12(r30),r1
 1516  00002130  0bffffc8	j	L64_LF2
 1517  00002134  54000000	nop; delay slot nop
 1518  00002138          	L65_LF2:
 1519  00002138  54000000	nop
 1520  0000213c          	L68_LF2:
 1521  0000213c  8fc1fff4	lw	r1,-12(r30)
 1522  00002140  2002000a	addi	r2,r0,#10
 1523  00002144  00200035	movi2fp	f0,r1
 1524  00002148  00400835	movi2fp	f1,r2
 1525  0000214c  0401000f	div	f0,f0,f1
 1526  00002150  00000834	movfp2i	r1,f0
 1527  00002154  afc1fff4	sw	-12(r30),r1
 1528  00002158  8fc10004	lw	r1,4(r30)
 1529  0000215c  20220001	addi	r2,r1,#1
 1530  00002160  afc20004	sw	4(r30),r2
 1531  00002164  8fc20000	lw	r2,(r30)
 1532  00002168  8fc3fff4	lw	r3,-12(r30)
 1533  0000216c  00400035	movi2fp	f0,r2
 1534  00002170  00600835	movi2fp	f1,r3
 1535  00002174  0401000f	div	f0,f0,f1
 1536  00002178  00001034	movfp2i	r2,f0
 1537  0000217c  00021820	add	r3,r0,r2
 1538  00002180  20620030	addi	r2,r3,#48
 1539  00002184  a0220000	sb	(r1),r2
 1540  00002188  8fc10000	lw	r1,(r30)
 1541  0000218c  8fc3fff4	lw	r3,-12(r30)
 1542  00002190  00200035	movi2fp	f0,r1
 1543  00002194  00600835	movi2fp	f1,r3
 1544  00002198  0401000f	div	f0,f0,f1
 1545  0000219c  00001034	movfp2i	r2,f0
 1546  000021a0  8fc3fff4	lw	r3,-12(r30)
 1547  000021a4  00400035	movi2fp	f0,r2
 1548  000021a8  00600835	movi2fp	f1,r3
 1549  000021ac  0401000e	mult	f0,f0,f1
 1550  000021b0  00001034	movfp2i	r2,f0
 1551  000021b4  00220822	sub	r1,r1,r2
 1552  000021b8  afc10000	sw	(r30),r1
 1553  000021bc          	L70_LF2:
 1554  000021bc  8fc1fff4	lw	r1,-12(r30)
 1555  000021c0  6c220001	sgti	r2,r1,#1
 1556  000021c4  1440000c	bnez	r2,L71_LF2
 1557  000021c8  54000000	nop; delay slot nop
 1558  000021cc  0800000c	j	L61_LF2
 1559  000021d0  54000000	nop; delay slot nop
 1560  000021d4          	L71_LF2:
 1561  000021d4  0bffff64	j	L68_LF2
 1562  000021d8  54000000	nop; delay slot nop
 1563  000021dc          	L69_LF2:
 1564  000021dc          	L63_LF2:
 1565  000021dc          	L61_LF2:
 1566  000021dc  8fc10004	lw	r1,4(r30)
 1567  000021e0  20020000	addi	r2,r0,(#0x0)&0xff
 1568  000021e4  a0220000	sb	(r1),r2
 1569  000021e8          	L59_LF2:
 1570  000021e8  8fa20000	lw	r2,0(r29)
 1571  000021ec  8fa30004	lw	r3,4(r29)
 1572  000021f0  8fdffff8	lw	r31,-8(r30)
 1573  000021f4  001ee820	add	r29,r0,r30
 1574  000021f8  8fdefffc	lw	r30,-4(r30)
 1575  000021fc  4be00000	jr	r31
 1576  00002200  54000000	nop
 1577  00002204          	.endproc _ditoa
 1578  00002204          	.align 2
 1579  00002204          	.proc _dstrtol
 1580  00002204          	.global _dstrtol
 1581  00002204          	_dstrtol:
 1582                      ;  Function 'dstrtol'; 16 bytes of locals, 1 regs to save.
 1583  00002204  afbefffc	sw	-4(r29),r30; push fp
 1584  00002208  001df020	add	r30,r0,r29; fp = sp
 1585  0000220c  afbffff8	sw	-8(r29),r31; push ret addr
 1586  00002210  2fbd0020	subui	r29,r29,#32; alloc local storage
 1587  00002214  afa20000	sw	0(r29),r2
 1588  00002218  20010000	addi	r1,r0,#0
 1589  0000221c  afc1fff4	sw	-12(r30),r1
 1590  00002220          	L73_LF2:
 1591  00002220  8fc10000	lw	r1,(r30)
 1592  00002224  90220000	lbu	r2,(r1)
 1593  00002228  60410020	seqi	r1,r2,#32
 1594  0000222c  14200034	bnez	r1,L75_LF2
 1595  00002230  54000000	nop; delay slot nop
 1596  00002234  8fc10000	lw	r1,(r30)
 1597  00002238  90220000	lbu	r2,(r1)
 1598  0000223c  60410009	seqi	r1,r2,#9
 1599  00002240  14200020	bnez	r1,L75_LF2
 1600  00002244  54000000	nop; delay slot nop
 1601  00002248  8fc10000	lw	r1,(r30)
 1602  0000224c  90220000	lbu	r2,(r1)
 1603  00002250  6041000a	seqi	r1,r2,#10
 1604  00002254  1420000c	bnez	r1,L75_LF2
 1605  00002258  54000000	nop; delay slot nop
 1606  0000225c  0800001c	j	L74_LF2
 1607  00002260  54000000	nop; delay slot nop
 1608  00002264          	L75_LF2:
 1609  00002264  8fc20000	lw	r2,(r30)
 1610  00002268  20410001	addi	r1,r2,#1
 1611  0000226c  00011020	add	r2,r0,r1
 1612  00002270  afc20000	sw	(r30),r2
 1613  00002274  0bffffa8	j	L73_LF2
 1614  00002278  54000000	nop; delay slot nop
 1615  0000227c          	L74_LF2:
 1616  0000227c  8fc10004	lw	r1,4(r30)
 1617  00002280  64220000	snei	r2,r1,#0
 1618  00002284  10400010	beqz	r2,L76_LF2
 1619  00002288  54000000	nop; delay slot nop
 1620  0000228c  8fc10004	lw	r1,4(r30)
 1621  00002290  8fc20000	lw	r2,(r30)
 1622  00002294  ac220000	sw	(r1),r2
 1623  00002298          	L76_LF2:
 1624  00002298  8fc10000	lw	r1,(r30)
 1625  0000229c  90220000	lbu	r2,(r1)
 1626  000022a0  64410000	snei	r1,r2,#0
 1627  000022a4  14200010	bnez	r1,L77_LF2
 1628  000022a8  54000000	nop; delay slot nop
 1629  000022ac  8fc1fff4	lw	r1,-12(r30)
 1630  000022b0  08000294	j	L72_LF2
 1631  000022b4  54000000	nop; delay slot nop
 1632  000022b8          	L77_LF2:
 1633  000022b8  8fc10000	lw	r1,(r30)
 1634  000022bc  90220000	lbu	r2,(r1)
 1635  000022c0  6041002d	seqi	r1,r2,#45
 1636  000022c4  10200024	beqz	r1,L78_LF2
 1637  000022c8  54000000	nop; delay slot nop
 1638  000022cc  2001ffff	addi	r1,r0,#-1
 1639  000022d0  afc1ffec	sw	-20(r30),r1
 1640  000022d4  8fc20000	lw	r2,(r30)
 1641  000022d8  20410001	addi	r1,r2,#1
 1642  000022dc  00011020	add	r2,r0,r1
 1643  000022e0  afc20000	sw	(r30),r2
 1644  000022e4  0800000c	j	L79_LF2
 1645  000022e8  54000000	nop; delay slot nop
 1646  000022ec          	L78_LF2:
 1647  000022ec  20010001	addi	r1,r0,#1
 1648  000022f0  afc1ffec	sw	-20(r30),r1
 1649  000022f4          	L79_LF2:
 1650  000022f4  8fc10008	lw	r1,8(r30)
 1651  000022f8  64220000	snei	r2,r1,#0
 1652  000022fc  14400090	bnez	r2,L80_LF2
 1653  00002300  54000000	nop; delay slot nop
 1654  00002304  8fc10000	lw	r1,(r30)
 1655  00002308  90220000	lbu	r2,(r1)
 1656  0000230c  60410030	seqi	r1,r2,#48
 1657  00002310  10200074	beqz	r1,L81_LF2
 1658  00002314  54000000	nop; delay slot nop
 1659  00002318  8fc20000	lw	r2,(r30)
 1660  0000231c  20410001	addi	r1,r2,#1
 1661  00002320  00011020	add	r2,r0,r1
 1662  00002324  afc20000	sw	(r30),r2
 1663  00002328  8fc10000	lw	r1,(r30)
 1664  0000232c  90220000	lbu	r2,(r1)
 1665  00002330  60410078	seqi	r1,r2,#120
 1666  00002334  14200020	bnez	r1,L83_LF2
 1667  00002338  54000000	nop; delay slot nop
 1668  0000233c  8fc10000	lw	r1,(r30)
 1669  00002340  90220000	lbu	r2,(r1)
 1670  00002344  60410058	seqi	r1,r2,#88
 1671  00002348  1420000c	bnez	r1,L83_LF2
 1672  0000234c  54000000	nop; delay slot nop
 1673  00002350  08000024	j	L82_LF2
 1674  00002354  54000000	nop; delay slot nop
 1675  00002358          	L83_LF2:
 1676  00002358  20010010	addi	r1,r0,#16
 1677  0000235c  afc10008	sw	8(r30),r1
 1678  00002360  8fc20000	lw	r2,(r30)
 1679  00002364  20410001	addi	r1,r2,#1
 1680  00002368  00011020	add	r2,r0,r1
 1681  0000236c  afc20000	sw	(r30),r2
 1682  00002370  0800000c	j	L84_LF2
 1683  00002374  54000000	nop; delay slot nop
 1684  00002378          	L82_LF2:
 1685  00002378  20010008	addi	r1,r0,#8
 1686  0000237c  afc10008	sw	8(r30),r1
 1687  00002380          	L84_LF2:
 1688  00002380  0800000c	j	L80_LF2
 1689  00002384  54000000	nop; delay slot nop
 1690  00002388          	L81_LF2:
 1691  00002388  2001000a	addi	r1,r0,#10
 1692  0000238c  afc10008	sw	8(r30),r1
 1693  00002390          	L85_LF2:
 1694  00002390          	L80_LF2:
 1695  00002390  8fc10008	lw	r1,8(r30)
 1696  00002394  70220000	slei	r2,r1,#0
 1697  00002398  1440001c	bnez	r2,L87_LF2
 1698  0000239c  54000000	nop; delay slot nop
 1699  000023a0  8fc10008	lw	r1,8(r30)
 1700  000023a4  6c220010	sgti	r2,r1,#16
 1701  000023a8  1440000c	bnez	r2,L87_LF2
 1702  000023ac  54000000	nop; delay slot nop
 1703  000023b0  08000010	j	L86_LF2
 1704  000023b4  54000000	nop; delay slot nop
 1705  000023b8          	L87_LF2:
 1706  000023b8  8fc1fff4	lw	r1,-12(r30)
 1707  000023bc  08000188	j	L72_LF2
 1708  000023c0  54000000	nop; delay slot nop
 1709  000023c4          	L86_LF2:
 1710  000023c4  54000000	nop
 1711  000023c8          	L88_LF2:
 1712  000023c8  8fc10000	lw	r1,(r30)
 1713  000023cc  90220000	lbu	r2,(r1)
 1714  000023d0  6c41002f	sgtui	r1,r2,#47
 1715  000023d4  10200030	beqz	r1,L91_LF2
 1716  000023d8  54000000	nop; delay slot nop
 1717  000023dc  8fc10000	lw	r1,(r30)
 1718  000023e0  90220000	lbu	r2,(r1)
 1719  000023e4  70410039	sleui	r1,r2,#57
 1720  000023e8  1020001c	beqz	r1,L91_LF2
 1721  000023ec  54000000	nop; delay slot nop
 1722  000023f0  8fc10000	lw	r1,(r30)
 1723  000023f4  90220000	lbu	r2,(r1)
 1724  000023f8  2041ffd0	addi	r1,r2,#-48
 1725  000023fc  afc1fff0	sw	-16(r30),r1
 1726  00002400  0800008c	j	L92_LF2
 1727  00002404  54000000	nop; delay slot nop
 1728  00002408          	L91_LF2:
 1729  00002408  8fc10000	lw	r1,(r30)
 1730  0000240c  90220000	lbu	r2,(r1)
 1731  00002410  6c410060	sgtui	r1,r2,#96
 1732  00002414  10200030	beqz	r1,L93_LF2
 1733  00002418  54000000	nop; delay slot nop
 1734  0000241c  8fc10000	lw	r1,(r30)
 1735  00002420  90220000	lbu	r2,(r1)
 1736  00002424  7041007a	sleui	r1,r2,#122
 1737  00002428  1020001c	beqz	r1,L93_LF2
 1738  0000242c  54000000	nop; delay slot nop
 1739  00002430  8fc10000	lw	r1,(r30)
 1740  00002434  90220000	lbu	r2,(r1)
 1741  00002438  2041ffa9	addi	r1,r2,#-87
 1742  0000243c  afc1fff0	sw	-16(r30),r1
 1743  00002440  0800004c	j	L92_LF2
 1744  00002444  54000000	nop; delay slot nop
 1745  00002448          	L93_LF2:
 1746  00002448  8fc10000	lw	r1,(r30)
 1747  0000244c  90220000	lbu	r2,(r1)
 1748  00002450  6c410040	sgtui	r1,r2,#64
 1749  00002454  10200030	beqz	r1,L95_LF2
 1750  00002458  54000000	nop; delay slot nop
 1751  0000245c  8fc10000	lw	r1,(r30)
 1752  00002460  90220000	lbu	r2,(r1)
 1753  00002464  7041005a	sleui	r1,r2,#90
 1754  00002468  1020001c	beqz	r1,L95_LF2
 1755  0000246c  54000000	nop; delay slot nop
 1756  00002470  8fc10000	lw	r1,(r30)
 1757  00002474  90220000	lbu	r2,(r1)
 1758  00002478  2041ffc9	addi	r1,r2,#-55
 1759  0000247c  afc1fff0	sw	-16(r30),r1
 1760  00002480  0800000c	j	L92_LF2
 1761  00002484  54000000	nop; delay slot nop
 1762  00002488          	L95_LF2:
 1763  00002488  200103e8	addi	r1,r0,#1000
 1764  0000248c  afc1fff0	sw	-16(r30),r1
 1765  00002490          	L96_LF2:
 1766  00002490          	L94_LF2:
 1767  00002490          	L92_LF2:
 1768  00002490  8fc1fff0	lw	r1,-16(r30)
 1769  00002494  8fc20008	lw	r2,8(r30)
 1770  00002498  0022082a	slt	r1,r1,r2
 1771  0000249c  10200040	beqz	r1,L90_LF2
 1772  000024a0  54000000	nop; delay slot nop
 1773  000024a4  8fc1fff4	lw	r1,-12(r30)
 1774  000024a8  8fc20008	lw	r2,8(r30)
 1775  000024ac  00200035	movi2fp	f0,r1
 1776  000024b0  00400835	movi2fp	f1,r2
 1777  000024b4  0401000e	mult	f0,f0,f1
 1778  000024b8  00000834	movfp2i	r1,f0
 1779  000024bc  afc1fff4	sw	-12(r30),r1
 1780  000024c0  8fc1fff4	lw	r1,-12(r30)
 1781  000024c4  8fc2fff0	lw	r2,-16(r30)
 1782  000024c8  00220820	add	r1,r1,r2
 1783  000024cc  afc1fff4	sw	-12(r30),r1
 1784  000024d0  8fc20000	lw	r2,(r30)
 1785  000024d4  20410001	addi	r1,r2,#1
 1786  000024d8  00011020	add	r2,r0,r1
 1787  000024dc  afc20000	sw	(r30),r2
 1788  000024e0          	L97_LF2:
 1789  000024e0          	L90_LF2:
 1790  000024e0  8fc1fff0	lw	r1,-16(r30)
 1791  000024e4  8fc20008	lw	r2,8(r30)
 1792  000024e8  0022082a	slt	r1,r1,r2
 1793  000024ec  1420000c	bnez	r1,L98_LF2
 1794  000024f0  54000000	nop; delay slot nop
 1795  000024f4  0800000c	j	L89_LF2
 1796  000024f8  54000000	nop; delay slot nop
 1797  000024fc          	L98_LF2:
 1798  000024fc  0bfffec8	j	L88_LF2
 1799  00002500  54000000	nop; delay slot nop
 1800  00002504          	L89_LF2:
 1801  00002504  8fc10004	lw	r1,4(r30)
 1802  00002508  64220000	snei	r2,r1,#0
 1803  0000250c  10400010	beqz	r2,L99_LF2
 1804  00002510  54000000	nop; delay slot nop
 1805  00002514  8fc10004	lw	r1,4(r30)
 1806  00002518  8fc20000	lw	r2,(r30)
 1807  0000251c  ac220000	sw	(r1),r2
 1808  00002520          	L99_LF2:
 1809  00002520  8fc1fff4	lw	r1,-12(r30)
 1810  00002524  8fc2ffec	lw	r2,-20(r30)
 1811  00002528  00200035	movi2fp	f0,r1
 1812  0000252c  00400835	movi2fp	f1,r2
 1813  00002530  0401000e	mult	f0,f0,f1
 1814  00002534  00000834	movfp2i	r1,f0
 1815  00002538  afc1fff4	sw	-12(r30),r1
 1816  0000253c  8fc1fff4	lw	r1,-12(r30)
 1817  00002540  08000004	j	L72_LF2
 1818  00002544  54000000	nop; delay slot nop
 1819  00002548          	L72_LF2:
 1820  00002548  8fa20000	lw	r2,0(r29)
 1821  0000254c  8fdffff8	lw	r31,-8(r30)
 1822  00002550  001ee820	add	r29,r0,r30
 1823  00002554  8fdefffc	lw	r30,-4(r30)
 1824  00002558  4be00000	jr	r31
 1825  0000255c  54000000	nop
 1826  00002560          	.endproc _dstrtol
 1827  00002560          	.align 2
 1828  00002560          	.proc _bcopy
 1829  00002560          	.global _bcopy
 1830  00002560          	_bcopy:
 1831                      ;  Function 'bcopy'; 0 bytes of locals, 2 regs to save.
 1832  00002560  afbefffc	sw	-4(r29),r30; push fp
 1833  00002564  001df020	add	r30,r0,r29; fp = sp
 1834  00002568  afbffff8	sw	-8(r29),r31; push ret addr
 1835  0000256c  2fbd0010	subui	r29,r29,#16; alloc local storage
 1836  00002570  afa20000	sw	0(r29),r2
 1837  00002574  afa30004	sw	4(r29),r3
 1838  00002578  54000000	nop
 1839  0000257c          	L101_LF2:
 1840  0000257c  8fc10008	lw	r1,8(r30)
 1841  00002580  2022ffff	addi	r2,r1,#-1
 1842  00002584  afc20008	sw	8(r30),r2
 1843  00002588  6c210000	sgti	r1,r1,#0
 1844  0000258c  1420000c	bnez	r1,L103_LF2
 1845  00002590  54000000	nop; delay slot nop
 1846  00002594  0800002c	j	L102_LF2
 1847  00002598  54000000	nop; delay slot nop
 1848  0000259c          	L103_LF2:
 1849  0000259c  8fc10004	lw	r1,4(r30)
 1850  000025a0  20220001	addi	r2,r1,#1
 1851  000025a4  afc20004	sw	4(r30),r2
 1852  000025a8  8fc20000	lw	r2,(r30)
 1853  000025ac  20430001	addi	r3,r2,#1
 1854  000025b0  afc30000	sw	(r30),r3
 1855  000025b4  80420000	lb	r2,(r2)
 1856  000025b8  a0220000	sb	(r1),r2
 1857  000025bc  0bffffbc	j	L101_LF2
 1858  000025c0  54000000	nop; delay slot nop
 1859  000025c4          	L102_LF2:
 1860  000025c4          	L100_LF2:
 1861  000025c4  8fa20000	lw	r2,0(r29)
 1862  000025c8  8fa30004	lw	r3,4(r29)
 1863  000025cc  8fdffff8	lw	r31,-8(r30)
 1864  000025d0  001ee820	add	r29,r0,r30
 1865  000025d4  8fdefffc	lw	r30,-4(r30)
 1866  000025d8  4be00000	jr	r31
 1867  000025dc  54000000	nop
 1868  000025e0          	.endproc _bcopy
 1869  000025e0          	.align 2
 1870  000025e0          	.proc _bzero
 1871  000025e0          	.global _bzero
 1872  000025e0          	_bzero:
 1873                      ;  Function 'bzero'; 0 bytes of locals, 1 regs to save.
 1874  000025e0  afbefffc	sw	-4(r29),r30; push fp
 1875  000025e4  001df020	add	r30,r0,r29; fp = sp
 1876  000025e8  afbffff8	sw	-8(r29),r31; push ret addr
 1877  000025ec  2fbd0010	subui	r29,r29,#16; alloc local storage
 1878  000025f0  afa20000	sw	0(r29),r2
 1879  000025f4  54000000	nop
 1880  000025f8          	L105_LF2:
 1881  000025f8  8fc10004	lw	r1,4(r30)
 1882  000025fc  2022ffff	addi	r2,r1,#-1
 1883  00002600  afc20004	sw	4(r30),r2
 1884  00002604  6c210000	sgti	r1,r1,#0
 1885  00002608  1420000c	bnez	r1,L107_LF2
 1886  0000260c  54000000	nop; delay slot nop
 1887  00002610  08000020	j	L106_LF2
 1888  00002614  54000000	nop; delay slot nop
 1889  00002618          	L107_LF2:
 1890  00002618  8fc10000	lw	r1,(r30)
 1891  0000261c  20220001	addi	r2,r1,#1
 1892  00002620  afc20000	sw	(r30),r2
 1893  00002624  20020000	addi	r2,r0,(#0x0)&0xff
 1894  00002628  a0220000	sb	(r1),r2
 1895  0000262c  0bffffc8	j	L105_LF2
 1896  00002630  54000000	nop; delay slot nop
 1897  00002634          	L106_LF2:
 1898  00002634          	L104_LF2:
 1899  00002634  8fa20000	lw	r2,0(r29)
 1900  00002638  8fdffff8	lw	r31,-8(r30)
 1901  0000263c  001ee820	add	r29,r0,r30
 1902  00002640  8fdefffc	lw	r30,-4(r30)
 1903  00002644  4be00000	jr	r31
 1904  00002648  54000000	nop
 1905  0000264c          	.endproc _bzero
 1906  0000264c          	.align 2
 1907  0000264c          	.proc _min
 1908  0000264c          	.global _min
 1909  0000264c          	_min:
 1910                      ;  Function 'min'; 0 bytes of locals, 2 regs to save.
 1911  0000264c  afbefffc	sw	-4(r29),r30; push fp
 1912  00002650  001df020	add	r30,r0,r29; fp = sp
 1913  00002654  afbffff8	sw	-8(r29),r31; push ret addr
 1914  00002658  2fbd0010	subui	r29,r29,#16; alloc local storage
 1915  0000265c  afa20000	sw	0(r29),r2
 1916  00002660  afa30004	sw	4(r29),r3
 1917  00002664  8fc10000	lw	r1,(r30)
 1918  00002668  8fc20004	lw	r2,4(r30)
 1919  0000266c  0022182c	sle	r3,r1,r2
 1920  00002670  14600008	bnez	r3,L109_LF2
 1921  00002674  54000000	nop; delay slot nop
 1922  00002678  8fc10004	lw	r1,4(r30)
 1923  0000267c          	L109_LF2:
 1924  0000267c  08000004	j	L108_LF2
 1925  00002680  54000000	nop; delay slot nop
 1926  00002684          	L108_LF2:
 1927  00002684  8fa20000	lw	r2,0(r29)
 1928  00002688  8fa30004	lw	r3,4(r29)
 1929  0000268c  8fdffff8	lw	r31,-8(r30)
 1930  00002690  001ee820	add	r29,r0,r30
 1931  00002694  8fdefffc	lw	r30,-4(r30)
 1932  00002698  4be00000	jr	r31
 1933  0000269c  54000000	nop
 1934  000026a0          	.endproc _min
 1935  000026a0          	.align 2
 1936  000026a0          	.proc _max
 1937  000026a0          	.global _max
 1938  000026a0          	_max:
 1939                      ;  Function 'max'; 0 bytes of locals, 2 regs to save.
 1940  000026a0  afbefffc	sw	-4(r29),r30; push fp
 1941  000026a4  001df020	add	r30,r0,r29; fp = sp
 1942  000026a8  afbffff8	sw	-8(r29),r31; push ret addr
 1943  000026ac  2fbd0010	subui	r29,r29,#16; alloc local storage
 1944  000026b0  afa20000	sw	0(r29),r2
 1945  000026b4  afa30004	sw	4(r29),r3
 1946  000026b8  8fc10000	lw	r1,(r30)
 1947  000026bc  8fc20004	lw	r2,4(r30)
 1948  000026c0  0022182d	sge	r3,r1,r2
 1949  000026c4  14600008	bnez	r3,L111_LF2
 1950  000026c8  54000000	nop; delay slot nop
 1951  000026cc  8fc10004	lw	r1,4(r30)
 1952  000026d0          	L111_LF2:
 1953  000026d0  08000004	j	L110_LF2
 1954  000026d4  54000000	nop; delay slot nop
 1955  000026d8          	L110_LF2:
 1956  000026d8  8fa20000	lw	r2,0(r29)
 1957  000026dc  8fa30004	lw	r3,4(r29)
 1958  000026e0  8fdffff8	lw	r31,-8(r30)
 1959  000026e4  001ee820	add	r29,r0,r30
 1960  000026e8  8fdefffc	lw	r30,-4(r30)
 1961  000026ec  4be00000	jr	r31
 1962  000026f0  54000000	nop
 1963  000026f4          	.endproc _max
 1964                      ;;; Ethan L. Miller, 1999.  Released to the public domain
 1965                      ;;;
 1966                      ;;; Most of the traps are called in files from libtraps.
 1969  000026f4          	.align 2
 1970  000026f4          	.proc _exit
 1971  000026f4          	.global _exit
 1972  000026f4          	_exit:
 1973  000026f4  44000300	trap	#0x300
 1974  000026f8  4be00000	jr	r31
 1975  000026fc  54000000	nop
 1976  00002700          	.endproc _exit
 1978                      ; for the benefit of gcc.
 1979  00002700          	.proc ___main
 1980  00002700          	.global ___main
 1981  00002700          	___main:
 1982  00002700  4be00000	jr	r31
 1983  00002704  54000000	nop
 1984  00002708          	.endproc ___main
 1985  00002708          	.text
 1986  00002708          	.global _etext
 1987  00002708          	_etext:
 1988  00002708          	.align 3
 1989  00002708          	.data
 1990  00003372          	.global _edata
 1991  00003372          	_edata:
